(lp0
F-0.02607867121696472
aF-0.08086660504341125
aF-0.07083272933959961
aF-0.03920963406562805
aF0.23266058787703514
aF0.01778481900691986
aF-0.09092751145362854
aF-0.017170369625091553
aF0.13558891415596008
aF0.0012875795364379883
aF0.10283024609088898
aF-0.1069301962852478
aF-0.12035119533538818
aF0.1146276593208313
aF-0.05498248338699341
aF-0.024404317140579224
aF-0.033988580107688904
aF0.0256166011095047
aF-0.10587111115455627
aF-0.011217191815376282
aF0.43961015343666077
aF0.2658989652991295
aF0.24593526870012283
aF0.21596539206802845
aF0.33443158864974976
aF0.3267748951911926
aF0.1940164864063263
aF0.2833773344755173
aF0.2798087149858475
aF0.21736082062125206
aF0.46633902192115784
aF0.6421001255512238
aF0.3836880773305893
aF0.4724036455154419
aF0.40934523940086365
aF0.35280492901802063
aF0.5522983372211456
aF0.5162149667739868
aF0.5537993013858795
aF0.42472755908966064
aF0.5578778684139252
aF0.6697358191013336
aF0.8008430898189545
aF0.5093312561511993
aF0.7692935764789581
aF0.6282248795032501
aF0.6275551021099091
aF0.7884176671504974
aF0.659529983997345
aF0.8146839439868927
aF0.758039116859436
aF0.8204164803028107
aF0.6545051336288452
aF0.681920975446701
aF0.7352334558963776
aF0.6685686409473419
aF0.6853700876235962
aF0.8537673652172089
aF0.8580481708049774
aF0.8399518430233002
aF0.5862662494182587
aF0.715526670217514
aF0.7156704366207123
aF0.7207611501216888
aF0.5591700971126556
aF0.8432248532772064
aF0.8368737995624542
aF0.6839927732944489
aF0.6915024816989899
aF0.792169064283371
aF0.8393104672431946
aF0.8466705977916718
aF0.8018642365932465
aF0.8104858100414276
aF0.7326399385929108
aF0.7641440331935883
aF0.893357127904892
aF0.6778966188430786
aF0.730820506811142
aF0.7214740812778473
aF0.640497624874115
aF0.8388827741146088
aF0.5723585188388824
aF0.6892528831958771
aF0.9723912179470062
aF0.7316319644451141
aF0.5472573935985565
aF0.76251420378685
aF0.8564804494380951
aF0.8733717501163483
aF0.7295787334442139
aF0.6282258629798889
aF0.6304714381694794
aF0.5992459356784821
aF0.6736493706703186
aF0.6193210184574127
aF0.6574593782424927
aF0.822408527135849
aF0.7196623384952545
aF0.7077654302120209
a.