(lp0
F-3.9
acnumpy.core.multiarray
scalar
p1
(cnumpy
dtype
p2
(S'f8'
p3
I0
I1
tp4
Rp5
(I3
S'<'
p6
NNNI-1
I-1
I0
tp7
bS'y/>\x1e;B\x11@'
p8
tp9
Rp10
aF-3.1
ag1
(g5
S'(\xea\xe58\xa4o\x1e@'
p11
tp12
Rp13
aF-4.7
aF-4.0
aF-4.5
ag1
(g5
S'vz8\xbeW\x1d\x1a@'
p14
tp15
Rp16
aF-11.399999999999979
aF-3.1
ag1
(g5
S'C\xb0l\xa8\xa7\xf9\x15@'
p17
tp18
Rp19
aF7.219427827000617
aF-6.000000000000002
aF-6.200000000000001
aF-4.300000000000001
aF-4.1
aF-4.0
aF-6.100000000000001
aF-4.5
aF7.708675549924373
aF-4.800000000000001
aF-4.2
aF7.485472401976585
aF-3.1
aI-3
aF-3.2
aF-5.300000000000001
aF8.368761871010065
aF-9.499999999999988
aF-3.1
aF-3.1
aI-3
aF6.556916180253028
aF-4.742358398437489
aF-6.400000000000002
aF-4.5
aI-3
aI-3
ag1
(g5
S'\xafr\xf8\x89\xf5\x10\x1a@'
p20
tp21
Rp22
aF-7.8
aF-4.4
ag1
(g5
S'\xa66\x97\r\xaa`\x12@'
p23
tp24
Rp25
aF8.135817176103592
aF-4.4
aF7.372218322008847
aF7.407946544885635
ag1
(g5
S'\xf2]G\x7f\xc7\xd4\x18@'
p26
tp27
Rp28
aF-4.1
aF-3.1
ag1
(g5
S'_\xac\xefP\x04\xe4\x1c@'
p29
tp30
Rp31
aF-3.9
aF-5.0
aF-3.8
aF-3.2
aF-3.8
aF-3.2
aF-3.2
aF-3.4
aF-3.2
aF-3.7
aF-3.2
aI-3
aF-3.2
aI-3
aF-3.1
aF5.8957325458526615
aF-3.1
aF-3.3
aF-3.2
aF-3.2
aF-3.2
aF-3.2
aF-3.2
aI-3
aI-3
aF-3.2
aF-3.4
aF-3.2
aF-3.2
aF-3.2
aF-0.5
aF-15.399999999999999
ag1
(g5
S"\xaf\x00\xd32\xeb'\x1e@"
p32
tp33
Rp34
aF-3.1
aF-3.2
aF-3.5
aF-3.1
aF-3.1
aF-3.1
aF-3.2
aF-3.2
aF-0.5
aF-3.1
aF-3.2
aF-3.4
aF-3.2
aF-3.1
aF-3.1
aF-3.2
aF-3.4
aI-3
aF-3.2
aF-3.2
aF-3.3
aF-3.5
aF-3.2
aF-3.1
aF-3.1
aF-3.2
aF-3.2
aF-3.4
aF-3.3
aF-3.2
aF-3.2
aF-3.2
aF-0.5
aF-3.6
aF-3.2
aF-3.6
aI-3
aF-3.2
aF-3.2
aF-0.7
aF-3.4
aF-0.6000000000000001
aF-3.2
aF-3.5
aF-3.2
aF-3.2
ag1
(g5
S'3\xff\x85\x1a\n,\x1e@'
p35
tp36
Rp37
aF-3.1
aF-3.1
ag1
(g5
S'\xda\xa5\xf7\x94H\x8f!@'
p38
tp39
Rp40
aF-3.4
aF-0.5
aF-3.1
aI-3
aI-3
aF-3.4
aI-3
aF-3.4
aF-0.30000000000000004
ag1
(g5
S'D\x14\x90\xffI\xc6"\xc0'
p41
tp42
Rp43
aF-3.1
aF-3.2
aF-0.4
aF-15.499999999999998
aF-3.1
aF-3.1
aF-3.4
aF-3.2
aF-3.1
aF-0.2
aF-3.5
aF-0.4
aF-0.4
aF-3.3
aF-3.2
aF-3.4
aF-3.4
aF-3.1
aI-3
aI-3
aF-3.3
aF-3.1
aF-3.1
aF-3.1
aF-3.3
aF-0.5
aF-3.1
aF-3.2
aF-3.1
aI-3
aI-3
aF-3.3
aI-3
aF-0.30000000000000004
aF-15.299999999999999
aF-3.2
aF-3.4
aF-0.6000000000000001
aF-0.8
aF-0.7
aF-3.3
aF7.70929102897644
aF-0.5
aF-3.3
aF-3.5
aF-3.2
aF-3.2
aF-3.1
aF-3.3
aF-0.5
aF-0.5
aF-0.5
aF-3.3
aF-3.5
aF-0.4
aF-3.1
aF-0.30000000000000004
aF-3.2
aF-0.5
aF-0.6
aF-3.1
aF-3.1
aF-0.2
aF-0.4
aF-12.399999999999999
aF-0.5
aF-0.4
aF-12.499999999999998
aF-3.1
aF-0.4
ag1
(g5
S'v\n\x1c\xfe\xb5@\x1d@'
p44
tp45
Rp46
aF-3.4
aF-3.2
aF-3.4
aF-3.4
aF-3.6
aF-0.4
aF-3.1
aF-3.2
aF-3.4
aF-0.4
aF-0.4
aF-3.5
aF-3.4
aF-3.1
aF-3.1
aF-3.4
aF-0.30000000000000004
aF-0.4
aF-0.4
aF-0.4
aF-3.4
aF-0.4
ag1
(g5
S'\xdd\xdf8\xe9mR@@'
p47
tp48
Rp49
aF-0.5
aF-3.1
aF-0.4
aF-3.2
aF-3.2
aF-0.6
aF-3.4
aF-3.2
aI-3
aF-3.4
aF-3.3
aF-3.2
aF-3.1
ag1
(g5
S'AR\x14$f{!@'
p50
tp51
Rp52
aF-3.1
aF-0.5
aF-6.399999999999999
aF-3.3
aI-3
aI-3
aF-3.1
aF-0.5
aF-0.6
aF-0.4
aF-3.3
aF-3.1
aF-0.2
aF-0.5
aF-0.4
aF-15.299999999999999
aF-3.1
aI-3
aF-3.1
aF-0.4
aF-0.4
aF-3.1
aF-0.30000000000000004
aF-0.4
aF-3.1
aF-3.2
aF-3.1
aI-3
aF-0.4
aF-0.6
aF-3.3
aF-3.1
aF-0.2
aF-3.1
aF-3.2
aF-0.30000000000000004
aF-3.1
aF-3.2
aF6.798742938041687
aF-3.2
aF-0.30000000000000004
aF-3.1
aF-3.2
aF-0.5
aF-3.3
aF-0.4
aF-0.6
aF-0.5
aF-3.3
aF-0.30000000000000004
aF-3.1
aI-3
aF-0.30000000000000004
aF-0.4
aF-3.3
aF-0.30000000000000004
aF-3.1
aF-3.2
aF-3.2
aF-0.4
aF-0.6
aF-3.5
aF-0.4
aF-3.7
aF-3.2
aF-0.2
aF-0.5
aF-0.4
aF-0.4
aF-0.5
aF-0.4
aF-3.3
aF-0.5
aF-0.5
aF-0.7
aF-3.2
aF-3.2
aF-0.4
aF-3.1
aF-3.2
aI-3
aI-3
aF-0.30000000000000004
aF-0.4
aF-3.1
aF-3.4
aF-0.4
aF-3.1
aF-0.4
aF-0.4
aF-3.3
aF-3.2
aF-0.5
aF-0.5
aF-3.5
aF-0.4
aF-0.5
aF-3.3
aF-3.2
aF-0.30000000000000004
aF-3.1
aF-0.30000000000000004
aF-3.3
aF-0.5
aF-6.699999999999998
aF-3.3
aF-0.4
aF-0.4
aF-0.6
aF-0.6
aF-12.399999999999999
aF-0.5
aF-0.5
aF-3.3
aF-3.2
aI-3
aF-0.30000000000000004
aF-9.299999999999999
aF-0.4
aF-0.5
aF-0.5
aF-3.1
aF-3.2
aF-0.30000000000000004
aF-0.4
aF-0.4
aF-9.299999999999999
aF-3.2
aF-3.4
aF-3.2
aF-3.2
aF-3.2
aF-3.1
aF-3.1
aF-3.1
aF-0.2
aF-12.399999999999999
aF-3.1
aF-0.30000000000000004
aF-3.1
aF-0.30000000000000004
aF-0.4
aF-3.3
aF-0.30000000000000004
aF-3.3
aF-0.30000000000000004
aF-12.399999999999999
aF-0.4
aF-0.4
aF-0.5
aF-0.4
aF-12.399999999999999
aF-0.4
aF-0.4
ag1
(g5
S'0:\x97FS\xb9\x16@'
p53
tp54
Rp55
aF-3.3
aF-0.4
aF-3.5
aI-3
aF-0.30000000000000004
aF-0.4
aF-3.1
aF-3.2
aF-0.4
aF-3.4
aF-0.30000000000000004
aF-0.4
aF-6.399999999999999
aF-3.3
aF-3.2
aF-3.2
aF-0.30000000000000004
aF14.227145278453825
aF-3.1
aF-3.1
aF-0.30000000000000004
aF-3.3
aF-0.5
aF-0.4
aF-3.1
aF-3.2
aF-0.30000000000000004
aF-0.7
aF-0.30000000000000004
aF-0.9999999999999999
aF-3.3
aF-3.1
aF-0.2
aF-0.4
aF-0.1
aI0
aI0
aI0
aI0
aI0
aI0
aI0
aI0
aI0
aI0
aI0
aI0
aI0
aI0
aI0
aI0
aI0
aI0
aI0
aI0
aI0
aI0
aI0
aI0
aI0
aI0
aI0
aI0
aI0
aI0
aI0
aI0
aI0
aI0
aI0
aI0
aI0
aI0
aI0
aI0
aI0
aI0
aI0
aI0
aI0
aI0
aI0
aI0
aI0
aI0
aI0
aI0
aI0
aI0
aI0
aI0
aI0
aI0
aI0
aI0
aI0
aI0
aI0
aI0
aI0
aI0
aI0
aI0
aI0
aI0
aI0
aI0
aI0
aI0
aI0
aI0
aI0
aI0
aI0
aI0
aI0
aI0
aI0
aI0
aI0
aI0
aI0
aI0
aI0
aI0
aI0
aI0
aI0
aI0
aI0
aI0
aI0
aI0
aI0
aI0
aI0
aI0
aI0
aI0
aI0
aI0
aI0
aI0
aI0
aI0
aI0
aI0
aI0
aI0
aI0
aI0
aI0
aI0
aI0
aI0
aI0
aI0
aI0
aI0
aI0
aI0
aI0
aI0
aI0
aI0
aI0
aI0
aI0
aI0
aI0
aI0
aI0
aI0
aI0
aI0
aI0
aI0
aI0
aI0
aI0
aI0
aI0
aI0
aI0
aI0
aI0
aI0
aI0
aI0
aI0
aI0
aI0
aI0
aI0
aI0
aI0
aI0
aI0
aI0
aI0
aI0
aI0
aI0
aI0
aI0
aI0
aI0
aI0
aI0
aI0
aI0
aI0
aI0
aI0
aI0
aI0
aI0
aI0
aI0
aI0
aI0
aI0
aI0
aI0
aI0
aI0
aI0
aI0
aI0
aI0
aI0
aI0
aI0
aI0
aI0
aI0
aI0
aI0
aI0
aI0
aI0
aI0
aI0
aI0
aI0
aI0
aI0
aI0
aI0
aI0
aI0
aI0
aI0
aI0
aI0
aI0
aI0
aI0
aI0
aI0
aI0
aI0
aI0
aI0
aI0
aI0
aI0
aI0
aI0
aI0
aI0
aI0
aI0
aI0
aI0
aI0
aI0
aI0
aI0
aI0
aI0
aI0
aI0
aI0
aI0
aI0
aI0
aI0
aI0
aI0
aI0
aI0
aI0
aI0
aI0
aI0
aI0
aI0
aI0
aI0
aI0
aI0
aI0
aI0
aI0
aI0
aI0
aI0
aI0
aI0
aI0
aI0
aI0
aI0
aI0
aI0
aI0
aI0
aI0
aI0
aI0
aI0
aI0
aI0
aI0
aI0
aI0
aI0
aI0
aI0
aI0
aI0
aI0
aI0
aI0
aI0
aI0
aI0
aI0
aI0
aI0
aI0
aI0
aI0
aI0
aI0
aI0
aI0
aI0
aI0
aI0
aI0
aI0
aI0
aI0
aI0
aI0
aI0
aI0
aI0
aI0
aI0
aI0
aI0
aI0
aI0
aI0
aI0
aI0
aI0
aI0
aI0
aI0
aI0
a.