(lp0
F0.04272088556899689
aF0.02887206309242174
aF0.016565086029004306
aF0.0026575354277156293
aF0.003336372028570622
aF-0.005134123668540269
aF0.006381103477906436
aF0.040778705559205264
aF0.03097397059900686
aF0.048582242510747164
aF0.042053440294694155
aF0.04187509574694559
aF0.04295466252369806
aF0.0004529299330897629
aF-0.028332034416962415
aF0.06831763096852228
aF0.05088538833661005
aF0.09960829623742029
aF-0.001688243297394365
aF0.06671074189944193
aF0.043987096927594393
aF-0.008613153651822358
aF-0.06108069635229185
aF0.02409077965421602
aF0.007897669158410281
aF0.023430542729329318
aF0.02028766245348379
aF-0.0008235408458858728
aF0.09233547904295847
aF0.019180541567038745
aF-0.00496164319338277
aF0.0664957479457371
aF-0.0023135231458581984
aF0.06437336810631678
aF0.056734820536803454
aF0.025491600565146655
aF0.05674411513609812
aF0.01318934716982767
aF0.04417239286703989
aF0.007604209415148944
aF0.06270369290723465
aF0.1366941423038952
aF0.16843573161168024
aF0.057615956000518054
aF0.07596984662814066
aF0.07279994495911524
aF0.06000277557177469
aF0.06855870940489694
aF0.0969801337341778
aF0.154779905162286
aF0.1501420230488293
aF0.0294509080122225
aF0.02992900990648195
aF0.11022702761692926
aF0.03765439771814272
aF0.07884406455559656
aF0.11801227339310572
aF0.08536404528422281
aF0.0755647660116665
aF0.09414994873804972
aF0.02071907528443262
aF0.056971253536175936
aF0.0875514090876095
aF0.06605218508047983
aF0.07412361510796472
aF0.07292634405894205
aF0.10599769809050485
aF0.04767468728823587
aF0.10658651002449915
aF0.052177717618178576
aF0.09278974094195291
aF0.053012499294709414
aF0.028757739521097392
aF0.12790600367588922
aF0.05632410355610773
aF0.11274590500397608
aF0.05163929768605158
aF0.08924725808901712
aF0.07618636795086786
aF0.151725763163995
aF0.22545611261739396
aF0.20869607635540888
aF0.08598431356949732
aF0.12907440372509882
aF0.26469028898281977
aF0.13301707216305658
aF0.18505836435360834
aF0.2387667239527218
aF0.24737555690808222
aF0.2966398985008709
aF0.3017625004868023
aF0.30600503989262506
aF0.20895829208893701
aF0.1909996808390133
aF0.24666223832173273
aF0.14722290047211573
aF0.24589011975331232
aF0.1358570695738308
aF0.21301744290394709
aF0.2253179342369549
aF0.28040424891514704
aF0.2856744021992199
aF0.30329341598553583
aF0.12155317672295496
aF0.20492623158497736
aF0.2371546567301266
aF0.2566405326942913
aF0.1820255906204693
aF0.31854588695568964
aF0.2822334856609814
aF0.22296366997761652
aF0.20529148884816095
aF0.1812750340322964
aF0.14599169202847406
aF0.1677896470646374
aF0.2794454485992901
aF0.1670325339655392
aF0.30083692976040766
aF0.03726623364491388
aF0.2851646334747784
aF0.2268145024718251
aF0.387827196798753
aF0.16407501109642908
aF0.19299612351460382
aF0.10933014162583277
aF0.1941175551037304
aF0.20040231355233118
aF0.286620685539674
aF0.3080808610538952
aF0.5393917948822491
aF0.6870429308037274
aF0.5370605976204388
aF0.5428794414619915
aF0.4110643655876629
aF0.4078977496246807
aF0.16907786735100672
aF0.3522379190544598
aF0.5358250529388897
aF0.20201695867581293
aF0.24977723666233942
aF0.5442181617836468
aF0.2026230187038891
aF0.1910074443439953
aF0.5160496027092449
aF0.4737799555878155
aF0.4810791701893322
aF0.3925479144672863
aF0.4756148249725811
aF0.2769614548305981
aF0.2682978601078503
aF0.4033916384796612
aF0.3870210737804882
aF0.13861996837658808
aF0.3166730196098797
aF0.18356184073491022
aF0.2377310485462658
aF0.5911319048027508
aF0.2661968857864849
aF0.1523179651121609
aF0.1825303674559109
aF0.34881902634515427
aF0.7240188510040753
aF0.5907251031021588
aF0.6325371653656475
aF0.3339330942253582
aF0.5949268729309551
aF0.2201265633921139
aF0.6988109738449566
aF0.32650397130055353
aF0.3628957659821026
aF0.4927449018578045
aF0.5187825352768414
aF0.3660332352737896
aF0.5409113556961529
aF0.7551259786705486
aF0.6891522795776837
aF0.28897849627537653
aF0.7884917051414959
aF0.7070182950119488
aF0.5350900084595196
aF0.5722057611565106
aF0.2301445544580929
aF0.5666816026787274
aF0.28880597063107416
aF0.37994287320179865
aF0.19057477422757074
aF0.39353049703640863
aF0.3759337753872387
aF0.35258726187748834
aF0.3019863457302563
aF0.2904705197433941
aF0.8559551031212322
aF0.6206927091698162
aF0.37393722840351984
aF0.2948140294174664
aF0.2720637709717266
aF0.3217976183514111
aF0.6115997821907513
aF0.43413869448704645
aF0.28410843916935846
aF0.5059096306504216
aF0.9330605060677044
aF1.098186710558366
aF0.47050330945057794
aF0.5173531562904827
aF0.9277719051460735
aF0.46499926754040644
aF0.2462907523731701
aF0.5247176677803509
aF0.9480403453926556
aF0.549561062536668
aF0.3437990636448376
aF1.0647663862328045
aF1.2148061782936566
aF0.7385079652885906
aF0.868012526712846
aF0.9780475289444439
aF0.884653905115556
aF1.1290554792503826
aF0.54146275826497
aF0.9275296718697064
aF0.24460003682179376
aF0.7376357109169476
aF0.9604592115501873
aF0.8406585247139446
aF0.3422273487667553
aF0.8159824998001568
aF0.5121315509895794
aF0.6755693943123333
aF0.6902779132942669
aF0.4076173097710125
aF0.3296984822372906
aF1.2551741392235272
aF0.940031626902055
aF0.9106748492340557
aF0.7653924615005963
aF0.652599015913438
aF0.632345178804826
aF1.2880236894707195
aF1.0518427879433148
aF0.5849908679665532
aF0.28383503266377375
aF0.9024320633034222
aF1.0236750633339398
aF0.575161078653764
aF0.7352964670280926
aF1.149668553553056
aF0.9776442439178936
aF1.7376432211021893
aF0.8124627859215252
aF0.7739269525627606
aF0.6335593850235455
aF0.6335593850235455
aF-0.025352060794830322
aF1.0107228548149578
aF0.6595431358437054
aF0.3855560512165539
aF1.1601967603783123
aF0.43966306158108637
aF1.1886881382088177
aF0.4852376372436993
aF0.8933614284615032
aF1.097760537348222
aF1.0903827936272137
aF1.0908490211586468
aF0.6162374407867901
aF1.1277987749199383
aF1.3476346523384564
aF0.6098594457725994
aF1.1152852565865032
aF0.41321719594998285
aF1.1261021883110516
aF0.5463646442512982
aF0.7347467929939739
aF0.379506507597398
aF1.135796287737321
aF0.5892720610718243
aF0.9213960558990948
aF0.4569114536861889
aF0.8817525894264691
aF0.6236086876015179
aF0.8462310522736516
aF0.821077027998399
aF1.5443473846535198
aF1.0790385992149822
aF1.3629796297173016
aF0.7609952480415814
aF0.3137920291046612
aF0.7925573379616253
aF1.253969648561906
aF1.0815658361534588
aF0.8419396073441021
aF0.9161114484886639
aF0.1721030116896145
aF1.2229409010033123
aF1.0525026113609783
aF0.9549917966942303
aF1.4192209035973065
aF1.3795826227287762
aF1.5203003675560467
aF0.8965413958649151
aF0.7689443022827618
aF1.0267842800240032
aF0.9550081879715435
aF1.1282765657524578
aF0.99955020257039
aF0.8719539434532635
aF0.47532142110867426
aF1.2050738126854412
aF1.3171508104423992
aF0.6543718368629925
aF0.4295858234982006
aF0.8092230350594036
aF0.7668981344322674
aF0.5659674198250286
aF1.136033275804948
aF1.3809405357460491
aF0.9528830439667217
aF0.4432628542999737
aF1.2829378635506146
aF0.9739228279213421
aF1.2804014176072087
aF0.818700113974046
aF0.9876986534218304
aF1.3446744472603314
aF1.15383909054799
aF1.333641746721696
aF1.034137466631364
aF1.329863408289384
aF1.2923311979393475
aF1.228064516268205
aF1.5882285625557415
aF1.1607725412468426
aF1.1380011827568524
aF1.203401783190202
aF1.0289604456047527
aF1.7623579294304363
aF0.6549044639687054
aF1.0224061996559612
aF1.2446189910988323
aF0.9114305169205181
aF1.3244678766350262
aF1.1501424104790203
aF1.114087441645097
aF1.0362149269203655
aF0.9104350001434796
aF0.9433396846870892
aF1.0516998560051434
aF0.8101065547089092
aF1.3061526805977337
aF0.8600799233536236
aF0.6151251585106365
aF0.9729580671410076
aF1.1308446914772503
aF1.3045775682548992
aF1.0516164095024578
aF1.0553345472435467
aF1.2758391887764446
aF1.3211911708931439
aF1.2650480062584393
aF1.4506765396217816
aF1.0322871893586125
aF1.559730032167863
aF1.6075454742531292
aF1.4300119669060223
aF1.5723527462105267
aF1.7027895242790692
aF1.3143980295280926
aF1.4665305406670086
aF1.4756836683372967
aF1.492463210306596
aF1.4540464670280926
aF1.5176574976067059
aF1.5563355476479046
aF0.7824864775757305
aF1.131187656603288
aF1.30498073407216
aF1.1306888849358074
aF1.2543084413628094
aF0.976102331362199
aF1.6341683656792156
aF1.4176203996757977
aF0.9700464708148502
aF1.2424334079842083
aF1.440835693560075
aF1.4640563518623821
aF1.5993151456932537
aF1.3625168592552654
aF0.9187661201576702
aF1.4602910072426312
aF1.4332619697670452
aF0.9298626572708599
aF1.4967403204063885
aF1.3755510837654583
aF1.4627153665642254
aF1.2831156046013348
aF1.5570070535759442
aF1.348510482988786
aF1.7469240219215862
aF1.367548683367204
aF1.4929414779762737
aF1.405776330822846
aF1.6979831249336712
aF1.6768934518913738
aF1.3643996507744305
aF1.7821374923805706
aF1.5163638383965008
aF1.120691159449052
aF1.6281753570656292
aF1.358668306551408
aF1.336101749620866
aF0.9186690837959759
aF1.1342304737190716
aF1.6404173166374676
aF1.3352668077568524
aF1.574111798487138
aF1.5161750108818524
aF1.7446466476540081
aF1.4597567112068646
aF1.1035229951958172
aF1.679145076952409
aF1.6189647705177777
aF1.1585356981377117
aF1.7372371942619793
aF1.4174877197365277
aF1.6594377548317425
aF1.2145912439445965
aF1.5586343795876019
aF1.714827278337907
aF1.1921412736992352
aF1.2760193140129559
aF0.8976985604385845
aF1.6128068954567425
aF1.4036105663399212
aF1.5477113515953533
aF1.3356334955315106
aF1.674202540598344
aF1.4999606401543133
aF1.3317253381828777
aF-0.05868637561798096
aF1.1309263498405926
aF1.1097167223633733
aF1.6319430858711712
aF1.5713743955711834
aF1.5884616167168133
aF1.5970886737923138
aF1.6306183130363934
aF1.5862542183022015
aF1.8449808151344769
aF1.4215045959572308
aF1.7170145303825848
aF1.983924129686784
aF1.468626359186601
aF1.817126968584489
aF1.6933142931084149
aF1.508897879801225
aF1.3407102615456097
aF1.2143990785698406
aF1.4323967487434857
aF1.4398689062218182
aF1.2723657877068035
aF1.40029642888112
aF1.463787058077287
aF1.7173656017403118
aF1.3507773668388836
aF1.4306915790657513
aF1.2898531944374554
aF1.2166889698128216
aF1.4596705228905194
aF1.5874660999397747
aF1.598800519190263
aF1.9149360448936932
aF1.5336459667305462
aF1.5307302267174236
aF0.9449402482132427
aF1.4618156940559857
aF1.8298606664757244
aF1.659718135080766
aF1.6844005376915447
aF1.5081236154655926
aF1.5427310258965008
aF1.57833487688913
aF1.1499573976616375
aF0.9303400904755108
aF1.701358416758012
aF1.8433322698692791
aF1.609383204660844
aF1.6042359859566204
aF1.8570315630058758
aF1.3207564146141522
aF1.7843996078590862
aF1.5609380991081707
aF1.9106292516808026
aF1.6722023279289715
aF1.6195732147316448
aF1.6538091690163128
aF1.5647809297661297
aF1.6551196367363445
aF1.675526240549516
aF1.619127610407304
aF1.5415441782097332
aF1.8025315792183392
aF1.1212935239891522
aF1.7400505334953777
aF1.679003098688554
aF1.372095802507829
aF1.6598870546440594
aF1.3957478792290203
aF1.4808980018715374
aF1.7034114391426556
aF1.3415401966194622
aF1.4984185487846844
aF1.6994666845421307
aF1.4542490036110394
aF1.4952771455864422
aF1.64767453976674
aF1.3786799699882977
aF1.7264104873756878
aF1.5203332693199627
aF1.4526861698250286
aF1.5721879989723675
aF0.8788816422165837
aF1.8988269359688275
aF1.9572070629219525
aF1.7535905630211346
aF1.2818355352501385
aF1.7519330770592205
aF1.9480527431587689
aF1.4860529691795819
aF1.592766502581071
aF1.583996036730241
aF1.5670778543571942
aF1.7039553911308758
aF1.7793105632881634
aF1.4793436319450848
aF1.6925509960274212
aF1.5085928232292645
aF1.2178361208061688
aF1.455605128488969
aF1.9438915044884197
aF1.189594844065141
aF1.8477089197258465
aF1.080407956324052
aF1.810890773020219
aF1.6224730999092571
aF1.9072420389275067
aF1.640214184008073
aF1.6312739641289227
aF1.4383550674538128
aF1.8050724060158245
aF1.7242393285850994
aF1.8202953130821697
aF1.202604869089555
aF1.1905401737312786
aF1.4030344278435223
aF1.492506721697282
aF1.472075322351884
aF1.6010404617409222
aF1.7713247329811566
aF1.604731300554704
aF1.7143165857414715
aF0.6525181621254887
aF1.7446434290031902
aF1.5958046705345623
aF1.7177215606789105
aF1.5389066726784222
aF1.553003171167802
aF1.6786685974220745
aF1.7794357330421917
aF1.7845303804497235
aF1.497892955027055
aF1.4630801469902508
aF2.034094551287126
aF1.5835495979408734
aF1.2201051504234783
aF1.7782875091652386
aF1.290696361742448
aF1.9785268098930828
aF1.7998300582985394
aF1.4576759130577557
aF1.5687817127327435
aF1.7785646707634442
aF1.6936235220055096
aF1.6290972025017254
aF1.543939450464677
aF1.9762553960899822
aF1.8425229580025189
aF1.5650183946709149
aF1.5612256319145672
aF1.4495644361595623
aF1.8189973623375408
aF1.7502275497536175
aF1.5888405830482952
aF1.5771419794182293
aF1.768998125276994
aF1.7863776476006024
aF1.7185601980309002
aF1.3202407152275555
aF1.8665332586388104
aF1.5777785570244305
aF1.3674527198891155
aF1.3809556454361882
aF1.276124098978471
aF1.8165690691093914
aF1.5233804971794598
aF1.755984643183183
aF1.4292768032173626
aF1.695909836969804
aF1.502889850817155
aF1.7072646410088055
aF1.4937150270561688
aF1.852644661150407
aF1.560034969530534
aF1.6103126794914715
aF1.6486291677574627
aF1.1913463861565106
aF1.472149112902116
aF1.5498602182487957
aF1.423275330744218
aF2.0087904722313397
aF2.145428159914445
aF1.5773505956749432
aF1.5963809282402508
aF1.6601836473564617
aF1.6652580291847698
aF1.5763041765312664
aF1.7064094335655682
aF1.8369080812553875
aF1.8730313570122235
aF1.7552363664726727
aF1.8304526598076336
aF1.6240083963493817
aF1.5602190286736004
aF1.6332423479179852
aF1.5109491140465252
aF2.0072779447655194
aF2.008099058351945
aF1.724800446711015
aF-0.3351224660873413
aF1.5031403095345013
aF1.4316012651543133
aF1.3562975615204778
aF1.2745338470558636
aF1.6919309885124676
aF1.4225839168648235
aF1.881635287485551
aF1.0679425985435955
aF1.144777754030656
aF1.6877896577934735
aF1.212229588709306
aF1.2309921772102825
aF1.9221471340279095
aF1.8137004167656414
aF1.4635087043861859
aF1.8376197607140057
aF1.3069640190224163
aF1.4955152065376751
aF1.6005017549614422
aF1.906919816217851
aF1.5699009687523358
aF1.5823371202568524
aF1.4784043819527142
aF1.5957364828209393
aF1.7046180755714886
aF1.6524381429771893
aF1.6883621008018963
aF1.4975416452507488
aF1.500501254282426
aF1.6965839655022137
aF1.6391099483589642
aF1.9203071386436932
aF1.6341466695885174
aF1.6838985473732464
aF1.4779048950294964
aF1.6155000717262737
aF1.8026984722237103
aF1.8916107208351605
aF1.5862390787224285
aF1.8706626684288494
aF1.759636619768571
aF1.856230118952226
aF1.5165818422974553
aF1.3963124544243328
aF1.6801373750786297
aF1.637475588999223
aF1.7807047159294598
aF1.6910253555397503
aF1.8356431514839642
aF1.6134736330132
aF1.9600053817848675
aF1.9001710207085125
aF1.5689730436424725
aF1.6905711681465618
aF1.3266172201256268
aF1.5077063829521649
aF1.4675775558571331
aF1.7690969497780316
aF1.8646199495415203
aF1.6526975423912518
aF1.2765071184257977
aF1.4237497837166302
aF1.773818591318559
aF2.080176571093034
aF1.7818311245064251
aF1.453008511743974
aF1.578380563936662
aF1.7343880922417156
aF1.452550986490678
aF1.6910565883736126
aF1.5234683544258587
aF1.5778767854790203
aF1.9476258546928875
aF1.7716657907585613
aF1.746540644846391
aF1.5999882013420574
aF1.9908367187599652
aF1.6385808975319378
aF1.8609390050987713
aF1.5145861894707195
aF1.663116195879411
aF1.635521152697038
aF0.2918033391179051
aF1.704401949129533
aF1.575479009828996
aF1.8379945547203533
aF1.4919464380363934
aF1.565585473261308
aF1.4293815881828777
aF1.6287227661232464
aF1.5623597890953533
aF1.4199400932411663
aF1.5298460514168255
aF1.6188928873161785
aF1.6881879360298626
aF1.4387277156929485
aF1.7185022623161785
aF1.71802423306508
aF1.6158357650856487
aF1.6817447931389324
aF1.9355423242668621
aF1.5844037325005047
aF1.7574440033058636
aF1.6994972021202557
aF1.8991082698921673
aF1.4530420095543377
aF1.6683947832207195
aF1.2743215353111736
aF1.7833845407585613
aF1.6685364038567059
aF1.3626525194267742
aF1.5007636339287274
a.