(lp0
F0.09024481896631187
aF-0.32363621605327353
aF-0.345897740626242
aF-0.47247440641513094
aF0.08783522207522765
aF0.5468009124160744
aF0.23720797995338216
aF0.7901793430210091
aF0.0320566157461144
aF0.3093128083855845
aF-0.2677867663442157
aF0.29556806781329215
aF0.4688356039696373
aF0.17463489348301664
aF-0.32692449720343575
aF-0.03949576144805178
aF0.3056578981340863
aF0.3879198190406896
aF0.8409063602448441
aF0.052958493179176
aF-0.6028835973484092
aF0.9436727958382107
aF0.4052886078716256
aF0.9463798851356842
aF0.6480684774578549
aF0.4102568226517178
aF0.25603956455597654
aF0.49033629620680586
aF0.5533256093622185
aF0.6211779630393721
aF0.04631082440027967
aF0.38064281368860975
aF0.7762519983225502
aF0.3354783440590836
aF0.4969728077412583
aF0.44998572120675817
aF0.5604273491189815
aF1.3858375410200097
aF0.9430426257313229
aF0.5484558819443919
aF1.3669703123377985
aF2.7107205140055157
aF5.079134878760669
aF2.84922818565974
aF2.0015508579672314
aF2.0705215344787575
aF2.8195382133708335
aF1.0441079633892514
aF2.9368641870678402
aF2.7506879056454636
aF2.9652696373523213
aF3.470532399660442
aF3.5607933896244504
aF3.113544498628471
aF4.237163578218315
aF2.2324475544155575
aF0.7916696267784573
aF1.9260190325439908
aF1.4363560723722912
aF4.357927152013872
aF1.91802777673729
aF5.2417169223190285
aF4.791129668301437
aF6.293386629840825
aF5.4518624758929946
aF4.6122448044479825
aF4.144287266826723
aF4.82485426182393
aF4.04901147732744
aF2.2736002030433156
aF5.1514527658582665
aF2.3801796781481244
aF5.397884965932462
aF4.275733855611179
aF3.927343850082252
aF4.76116106758127
aF3.3418934131623246
aF3.1390680084587075
aF1.4777701246202923
aF3.2197572561562993
aF4.948412409539742
aF6.042768870538566
aF12.296906848496292
aF6.908374753838871
aF6.84465329075465
aF9.992231343931053
aF9.519759769609664
aF6.46564419294009
aF5.849339542037342
aF4.04192889953265
aF8.428360623365734
aF7.808394850289915
aF6.070826024806593
aF4.375843227899168
aF8.013212186342571
aF5.540509064740036
aF7.485552568978164
aF7.5275028581381775
aF13.595770699030254
aF2.473757238185499
aF11.601602766168071
aF10.063692581898067
aF12.836546328908298
aF8.326877159124706
aF8.853411478048656
aF7.513075386232231
aF11.582159992831293
aF13.57976170402253
aF14.804668192809913
aF14.045000587648246
aF12.645326172059868
aF13.069751811271999
aF13.830764916783664
aF8.865264047926757
aF12.018417370563839
aF10.49239083105931
aF16.624246564751957
aF14.80460873717675
aF13.017829367017839
aF12.757564512139652
aF10.009348091225547
aF13.690125596767757
aF14.29695925588021
aF17.254119766002987
aF16.359814572206233
aF18.371305977052543
aF14.952439469343517
aF12.81836436042795
aF18.566680540388916
aF7.133662317937706
aF7.20743502402911
aF15.07508822629461
aF17.59421126829693
aF18.026161165034864
aF16.343986344581936
aF17.190082249289844
aF11.05713701719651
aF6.461226557439659
aF14.854265559115447
aF9.56550544971833
aF14.43842826087348
aF15.231629711634014
aF17.1982063158066
aF15.944804413302336
aF18.962560025101993
aF11.066312295442913
aF17.770214340707753
aF18.383007393276785
aF9.773926319612656
aF16.622476437187288
aF18.624002271390054
aF17.125902519619558
aF16.925883543735836
aF13.959863026684616
aF14.973347903287504
aF16.76946834573755
aF15.7433885653154
aF14.682030015683267
aF14.494124696648214
aF12.5635698941187
aF14.357240550707502
aF18.00715672696242
aF16.256834141968284
aF15.701639325416181
aF19.87428742373595
aF16.35437696153531
aF15.827508362999652
aF15.683459578140173
aF7.889548753446434
aF14.243782972043846
aF17.45166140521178
aF14.40670858049998
aF17.140030173177365
aF17.060847719258163
aF19.4993761452497
aF16.717132878548
aF16.403338135278318
aF20.790368806628976
aF18.20677435869584
aF20.255686844757292
aF14.446607303361816
aF18.0255656215013
aF17.461154932680074
aF16.626428448653314
aF14.881476637965534
aF15.036334105825517
aF16.365651128871832
aF17.768453000171576
aF16.90906758332858
aF20.622556208691094
aF11.271055107063148
aF16.98638764122734
aF18.438500118500087
aF15.607926853990648
aF16.058182054257486
aF17.279766862338874
aF18.731005665904377
aF14.215414411446545
aF17.997187738365028
aF17.5452002036036
aF18.699058088204765
aF15.677487541979644
aF15.115240168815944
aF16.79431077936897
aF16.968945738917682
aF13.833131537830923
aF18.570135933405254
aF15.858331433555577
aF19.06900943169603
aF16.672275000310037
aF19.44776001299033
aF16.85678192327032
aF17.75711718859384
aF16.86660858715186
aF15.441661592631135
aF13.193582565581892
aF19.50996518979082
aF18.954930313921068
aF13.10567495325813
aF19.34175977628911
aF14.418846011649293
aF18.896432769543026
aF15.774946239835117
aF15.25581893423805
aF19.838094291335437
aF20.08078359911451
aF19.422723771131132
aF19.25211439753184
aF15.999659094086383
aF20.1151154274703
aF14.628030926978681
aF16.90276126289973
aF17.67122057179222
aF7.654799659794662
aF19.119104118144605
aF16.393229373788927
aF18.666769507399295
aF18.41657853598008
aF17.855215025192592
aF12.082820002979133
aF17.507026593739283
aF18.518803966289852
aF20.16119797626743
aF12.909809527045581
aF19.703326885646675
aF18.369118449336383
aF17.864357334619854
aF16.316846151894424
aF18.597656729689334
aF16.6601798395277
aF19.540831715858076
aF18.322039105987642
aF15.895936441665981
aF19.623532936966512
aF18.656328994838987
aF17.107436954102013
aF16.8507761406363
aF15.371049837267492
aF15.636564194282982
aF17.585808028525207
a.