(lp0
F0.07910999991145218
aF0.09097745026519988
aF0.046160427285940386
aF0.03746390585729387
aF0.00662466035282705
aF0.020949491663486697
aF0.057157559887855314
aF0.036249457494704984
aF0.04409135376045015
aF0.021288319854647852
aF0.03188527618476655
aF0.0007108822028385475
aF0.006663308580755256
aF0.06074256951978896
aF0.04988585655519273
aF0.09122702981403563
aF0.04200860614946578
aF0.015192516511888243
aF0.02746609468886163
aF0.03574375192692969
aF0.11661392114910996
aF0.006640608058660291
aF0.0389410419302294
aF0.010720472419052385
aF0.09407941008976195
aF0.06895245109626558
aF0.07968944813183043
aF0.04109648113080766
aF0.029492848916561343
aF0.016283959717839025
aF0.11864052955934312
aF0.05529088024923112
aF0.006568231721757911
aF0.027852027313201688
aF0.019849768475978635
aF0.059044993118732236
aF0.013936320683569647
aF0.03857764472195413
aF0.027699540005414747
aF0.008209376959712245
aF0.0769756030276767
aF0.05444597695895936
aF0.034456742359907366
aF0.01681360359361861
aF0.07231277729442809
aF0.052768959300010465
aF0.005969959878711961
aF0.06802461539336946
aF0.07429633532592561
aF0.05950825045874808
aF0.0542414659721544
aF0.03597696368524339
aF0.03364948426315095
aF0.0686230013234308
aF0.06264645363262389
aF0.10174385701247957
aF0.07959072793892119
aF0.11375076566764619
aF0.0800961503846338
aF0.020472383694141172
aF0.0624877478912822
aF0.05318566541245673
aF0.07564521823951509
aF0.00253447461000178
aF0.02815138864389155
aF0.07156957183906343
aF0.05218750853964593
aF0.04432108507899102
aF0.06249766181281302
aF0.0735988194210222
aF0.042642453117878176
aF0.07973593975475524
aF0.0484140651387861
aF0.06009958441427443
aF0.09776475523540284
aF0.06113930176070426
aF0.05851431320479605
aF0.04010279347130563
aF0.06787132714816835
aF0.07966774945089128
aF0.013654524089361075
aF0.015443866504938342
aF0.010005851640016772
aF0.07129274065664504
aF0.05400141830614302
aF0.06041038538387511
aF0.025053359000594355
aF0.06680792327097151
aF0.07153357322386
aF0.05589394514390733
aF0.05627569313219283
aF0.04471393804124091
aF0.0477165518241236
aF0.05609371642640326
aF0.057757881833822466
aF0.0443995794194052
aF0.06340994442871306
aF0.020134529666393064
aF0.0356761490838835
aF0.050403459565131925
aF0.05287238918390358
aF0.036338684512884356
aF0.03302237634488847
aF0.04908038918802049
aF0.03794738407304976
aF0.057702297912328504
aF0.003641057657659985
aF0.0001789667730918154
aF0.038931106581003405
aF0.06524371598789003
aF0.022036308990209363
aF0.035407123519689776
aF0.053904337240965106
aF0.0748692056076834
aF0.057519483016221784
aF0.09476765002182219
aF0.037387522505014203
aF0.06370896603039
aF0.0568449361162493
aF0.01905337219068315
aF0.047384266181325074
aF0.04083793108293321
aF0.06741183494159486
aF0.042276310370652936
aF0.025707616834552027
aF0.06993514801433776
aF0.06060530488321092
aF0.05319214482733514
aF0.07054524625709746
aF0.2106709530489752
aF0.04047279302903917
aF0.03257318456599023
aF0.030495300321490504
aF0.05160628129669931
aF0.043543564723222516
aF0.0315220976335695
aF0.06555905436107423
aF0.18853235746792052
aF0.0003419679560465738
aF0.057795251355855726
aF0.01932869814481819
aF0.05368812625238206
aF0.02114286216965411
aF0.013152366140275262
aF0.05919078235456254
aF0.0334096228616545
aF0.030449197263806127
aF0.025693037910968997
aF0.004707824802608229
aF0.043061143354862
aF0.02914165575930383
aF0.026585438652546145
aF0.050006198332994245
aF0.06416483725479338
aF0.044177317424328066
aF0.035175339682609774
aF0.00016884169599507004
aF0.020686140851466917
aF0.04564103354641702
aF0.009373454013257287
aF0.05553828962001717
aF0.04381294305494521
aF0.007116678738384508
aF0.04309105257561896
aF0.06115390117338393
aF0.03926538433006499
aF0.028678436399786733
aF0.014262428143410943
aF0.05396807695797179
aF0.037422304405481555
aF0.037142696426599286
aF0.053494361593038775
aF0.00466489429527428
aF0.01769073809555266
aF0.0499852722423384
aF0.054828869746415876
aF0.04951073099800851
aF0.015049765250296332
aF0.048484658254892565
aF0.024007019223063253
aF0.032015885786677245
aF0.017452788903028704
aF0.005717518841265701
aF0.04283872376254294
aF0.05604958777257707
aF0.05679451058676932
aF0.012650609380216338
aF0.011514425641507842
aF0.054082093192846514
aF0.008897471605450846
aF0.015606497778207995
aF0.028085155980079435
aF0.03514808173349593
aF0.021309779389412142
aF0.03236984332033899
aF0.05146321152278688
aF0.038856340004713275
aF0.021024654983193614
aF0.052148605333059095
aF0.05588317419460509
aF0.0006232477389858104
aF0.04550210629531648
aF0.056119429515092634
aF0.026850326554267667
aF0.017086339546949603
aF0.04682269562908914
aF0.04981930796930101
aF0.027304843635647558
aF0.02993128319212701
aF0.03746169935038779
aF0.06874272470304277
aF0.04864648114016745
aF0.013430327744572423
aF0.036760312868864276
aF0.015389467022032477
aF0.028500123517005704
aF0.05794279406836722
aF0.046972201569587924
aF0.04831634332367685
aF0.003405242125154473
aF0.04640083722915733
aF0.04643726105859969
aF0.04874333982297685
aF0.04733870794007089
aF0.05984086041280534
aF0.04071915279200766
aF0.049997045294730924
aF0.03188720102480147
aF0.02426025214663241
aF0.015861174659221433
aF0.052306814686744474
aF0.03852817173174117
aF0.05318336059281137
aF0.048323998795240186
aF0.04590433220437262
aF0.021307921604602598
aF0.007992147831828333
aF0.055424427046091296
aF0.04959958548715804
aF0.05284317825862672
aF0.03058668375160778
aF0.034735677196295
aF0.01800061146786902
aF0.053991141365258954
aF0.05518273021152709
aF0.04566478972265031
aF0.01796563212701585
aF0.020877549992292188
aF0.02368247452250216
aF0.028871515198261477
aF0.05804204325249884
aF0.04067762325576041
aF0.05618303771188948
aF0.027735679046600126
aF0.00832303577044513
aF0.00954567211738322
aF0.05842181538173463
aF0.03010564912983682
aF0.03711824734637048
aF0.04457650576659944
a.