(lp0
F0.22006226028315723
aF0.1828222524782177
aF0.017697864066576585
aF0.05826649707159959
aF0.06429148730239831
aF0.004406678344821557
aF0.005388337041949853
aF-0.03557239208021201
aF0.08492180969915353
aF-0.04909056160249747
aF0.06006656284444034
aF-0.04148123343475163
aF0.16770476545207202
aF0.3556095852982253
aF0.28772812034003437
aF0.10273039783351123
aF0.2537023320328444
aF0.5692340924870223
aF0.2140695198904723
aF0.5435654714237899
aF1.319243748439476
aF1.7115860774647444
aF1.278359968913719
aF0.9637941911350936
aF1.448044379008934
aF2.1482902362477034
aF2.8538144424092025
aF2.0008383586537093
aF1.9237781360279769
aF1.617804367793724
aF1.403277714503929
aF1.5011671378742903
aF2.6510563686024398
aF2.3821090057026595
aF2.0055640533100814
aF2.276404459727928
aF1.5720066621433944
aF2.3494768931996077
aF2.220716793788597
aF1.8584338023792952
aF1.8887461021076888
aF1.663833101047203
aF2.1009019210468978
aF2.0750201537739486
aF2.032841046107933
aF1.5198679759632796
aF2.271795828593895
aF2.533632357371971
aF2.4803899123799056
aF2.2797978713642806
aF1.3744674518238753
aF2.9310777976643294
aF2.630035479320213
aF1.880849678767845
aF2.572033245814964
aF2.094770510448143
aF1.877804835094139
aF2.477409680141136
aF2.358515579951927
aF1.586925585521385
a.