(lp0
F-0.5033169565649587
aF-0.6924579321639612
aF-0.003116040606983006
aF-0.6167509994702414
aF-0.997962563415058
aF-0.5634716368513182
aF-0.907674006302841
aF-0.8311811863677576
aF-0.5436122260289267
aF-0.4834767273860052
aF-0.06833896331954747
aF-0.6066356325754896
aF0.13752706057857722
aF-0.007261208374984562
aF-0.5481529451208189
aF-0.45032631896901876
aF-0.3467059350805357
aF-0.1578242686809972
aF-0.3448130778269842
aF0.2885016397340223
aF1.9872857792142895
aF1.180413865367882
aF3.4717048628954217
aF2.5840117066400126
aF2.2261167102260515
aF1.8028309353394434
aF2.5537807651562616
aF1.18728285364341
aF2.508290556143038
aF2.0441303186817095
aF5.908417103237298
aF6.129565494484268
aF3.3823017234681174
aF5.8049578563077375
aF6.267652415554039
aF5.061734446207993
aF4.053283871035092
aF5.976757738390006
aF4.250819270382635
aF1.6240755625767633
aF7.748792150414374
aF9.113591161440127
aF7.924823683570139
aF7.4025458440883085
aF8.152468741755001
aF8.6770041071577
aF6.581823077867739
aF8.604404681245796
aF6.3081636995775625
aF7.360568276490085
aF9.261386159232643
aF10.233080952311866
aF10.30346930201631
aF10.199556068400852
aF9.891025868128054
aF10.109626144985668
aF10.808115710387938
aF9.286403168807738
aF9.577576682786457
aF10.526289042900316
aF10.312885192579415
aF10.295161471585743
aF9.866651964257471
aF10.848168369266205
aF10.239521150360815
aF9.74738186399918
aF9.960530183161609
aF9.619596411357634
aF11.089794202707708
aF10.938786535407417
aF9.218165723032143
aF10.367147137294523
aF10.084474773029797
aF11.011067570070736
aF9.92729734920431
aF8.676719299437536
aF10.544020716915838
aF10.745813843677752
aF10.877713348018005
aF11.01474023598712
aF8.816079364514735
aF10.293431893805973
aF9.787471310119145
aF10.923654909129255
aF9.915531547158025
aF10.178948758984916
aF10.80087465874385
aF10.511667520622723
aF10.358357519726269
aF9.78853346023243
aF10.078838525696483
aF10.40435938804876
aF10.767490325379185
aF10.762774326722138
aF9.442266111145727
aF10.256446690182202
aF10.893281695316546
aF10.12884786061477
aF10.65374877944123
aF10.599739660392515
a.