(lp0
F0.6155307292938232
aF0.5081536173820496
aF0.5667990744113922
aF0.6767973899841309
aF0.4106791019439697
aF0.6687201857566833
aF0.6020866930484772
aF0.5166381299495697
aF0.572867214679718
aF0.6822536289691925
aF0.5798740983009338
aF0.49648407101631165
aF0.713414341211319
aF0.7105736434459686
aF0.5057635009288788
aF0.5494019687175751
aF0.5956152975559235
aF0.5135717689990997
aF0.6217355132102966
aF0.5910508632659912
aF2.1910366117954254
aF2.4202936589717865
aF2.371516317129135
aF2.4902029931545258
aF2.400782436132431
aF2.3856907784938812
aF2.4134925305843353
aF2.451669543981552
aF2.450000375509262
aF2.398484319448471
aF2.2525209486484528
aF2.2442191541194916
aF2.411031574010849
aF2.418231815099716
aF2.4295571744441986
aF2.4998019635677338
aF2.3912647664546967
aF2.4645536839962006
aF2.372333377599716
aF2.37612184882164
aF2.2571865618228912
aF2.330085128545761
aF2.3221491277217865
aF2.459580034017563
aF2.3726528584957123
aF2.372476190328598
aF2.335538238286972
aF2.3487540185451508
aF2.389190524816513
aF2.332721561193466
aF2.3774570524692535
aF2.4651473462581635
aF2.489189237356186
aF2.4618557393550873
aF2.4559687077999115
aF2.3950763642787933
aF2.490933269262314
aF2.542562812566757
aF2.4786380231380463
aF2.460951656103134
aF2.295817047357559
aF2.404740422964096
aF2.376513332128525
aF2.456104129552841
aF2.4754908978939056
aF2.3462086617946625
aF2.3933542668819427
aF2.4712797105312347
aF2.3619059026241302
aF2.4236510694026947
aF2.4136323034763336
aF2.369558662176132
aF2.5018363893032074
aF2.5248135030269623
aF2.5458453595638275
aF2.464568942785263
aF2.3705545365810394
aF2.528251498937607
aF2.518669933080673
aF2.5236454904079437
aF2.3285156786441803
aF2.425431102514267
aF2.4220772683620453
aF2.3503192365169525
aF2.4025906026363373
aF2.3043852746486664
aF2.4046572148799896
aF2.374924510717392
aF2.3501952588558197
aF2.4569223821163177
aF2.3311642706394196
aF2.4395414292812347
aF2.5358422696590424
aF2.452465146780014
aF2.213366359472275
aF2.36350354552269
aF2.5106774270534515
aF2.230648845434189
aF2.4715274274349213
aF2.2702196538448334
aF2.3635462820529938
aF2.3977716863155365
aF2.451373904943466
aF2.410190671682358
aF2.494424670934677
aF2.4280515611171722
aF2.517824739217758
aF2.437664359807968
aF2.5052994191646576
aF2.434259742498398
aF2.349984794855118
aF2.4269436299800873
aF2.411667674779892
aF2.446004241704941
aF2.450445979833603
aF2.3439269959926605
aF2.340451091527939
aF2.4118944108486176
aF2.308905214071274
aF2.434560626745224
aF2.403437525033951
aF2.512009233236313
aF2.4810472428798676
aF2.442086786031723
aF2.493764966726303
aF2.5052481591701508
aF2.4018066823482513
aF2.441042274236679
aF2.382164090871811
aF2.5171450078487396
aF2.3432461321353912
aF2.390997737646103
aF2.466221898794174
aF2.490560382604599
aF2.4379282891750336
aF2.489168018102646
aF2.533280223608017
aF2.3112981021404266
aF2.367456763982773
aF2.4823380410671234
aF2.217820316553116
aF2.40877303481102
aF2.35284361243248
aF2.385563939809799
aF2.362428992986679
aF2.174972265958786
aF2.2074526250362396
aF2.410017102956772
aF2.396460384130478
aF2.292397826910019
aF2.555258423089981
aF2.4862819612026215
aF2.5347507894039154
aF2.420046418905258
aF2.3469928205013275
aF2.3992265164852142
aF2.2357209622859955
aF2.440072149038315
aF2.3936677873134613
aF2.4818707406520844
aF2.199564129114151
aF2.3944192826747894
aF2.3886464536190033
aF2.4111452996730804
aF2.394425481557846
aF2.384875863790512
aF2.374201864004135
aF2.3388346135616302
aF2.414893001317978
aF2.34248885512352
aF2.3494211733341217
aF2.574072688817978
aF2.461545318365097
aF2.5096445977687836
aF2.504877418279648
aF2.3369034230709076
aF2.522744506597519
aF2.5412457883358
aF2.491055577993393
aF2.391739696264267
aF2.2669247686862946
aF2.4085024297237396
aF2.3846205174922943
aF2.220885843038559
aF2.298468202352524
aF2.3624444901943207
aF2.3719023168087006
aF2.388432592153549
aF2.3993142545223236
aF2.2580967843532562
aF2.316554695367813
aF2.4122305810451508
aF2.4615581929683685
aF2.4076195657253265
aF2.288967937231064
aF2.3719066083431244
aF2.3968256413936615
aF2.4968715608119965
aF2.428315967321396
aF2.5008207261562347
aF2.209970623254776
aF2.428205579519272
aF2.447149842977524
aF2.2511387765407562
aF2.4149130284786224
aF2.3360022008419037
aF2.3058954179286957
aF2.391165107488632
aF2.2707856595516205
aF2.3091791570186615
aF2.2079698145389557
aF2.4026058614254
aF2.3982389867305756
aF2.167383164167404
aF2.483250468969345
aF2.5019308030605316
aF2.459385722875595
aF2.3821695744991302
aF2.474193423986435
aF2.47232922911644
aF2.260087639093399
aF2.4559682309627533
aF2.3981591165065765
aF2.2999113500118256
aF2.4102695882320404
aF2.442227691411972
aF2.2083257138729095
aF2.4561873376369476
aF2.367300122976303
aF2.3997744023799896
aF2.228725105524063
aF2.4496630132198334
aF2.520836442708969
aF2.472200244665146
aF2.4691341817379
aF2.4736011922359467
aF2.4601210057735443
aF2.2726806104183197
aF2.5389243066310883
aF2.3705309331417084
aF2.3518361151218414
aF2.3466831147670746
aF2.4678114354610443
aF2.459608882665634
aF2.4407072961330414
aF2.4649122655391693
aF2.4611752927303314
aF2.3047030866146088
aF2.425445646047592
aF2.464464992284775
aF2.3655506670475006
aF2.4078586995601654
aF2.2544675767421722
aF2.481752246618271
aF2.3789933621883392
aF2.4755233228206635
aF2.532005876302719
aF2.4223237931728363
aF2.3398960530757904
aF2.4083238542079926
aF2.29839625954628
aF2.3944824635982513
aF2.510443538427353
aF2.3174680173397064
aF2.539231151342392
aF2.5475703179836273
aF2.4668186604976654
aF2.3590045869350433
aF2.3861609399318695
aF2.410330146551132
aF2.2836216390132904
aF2.3176985681056976
aF2.469813197851181
aF2.45923313498497
aF2.502910226583481
aF2.4768122136592865
aF2.475932687520981
aF2.4726105630397797
aF2.296407550573349
aF2.482104390859604
aF2.2345687448978424
aF2.402470678091049
aF2.4062229096889496
aF2.3293538987636566
aF2.404972642660141
aF2.293006271123886
aF2.398918002843857
aF2.229355663061142
aF2.3808151185512543
aF2.34185728430748
aF2.3229662477970123
aF2.4635892808437347
aF2.532975524663925
aF2.4769314229488373
aF2.456580013036728
aF2.3404005467891693
aF2.420292466878891
aF2.4633701741695404
aF2.314429134130478
aF2.4259224832057953
a.