(lp0
F0.048677270067855716
aF0.07442440357408486
aF0.05355450775823556
aF-0.01427378985681571
aF0.0873923551698681
aF0.14513992783031426
aF0.05504029509029351
aF0.18222973760566674
aF0.0691985439916607
aF0.11032248553237878
aF0.09099422837607563
aF0.12999682570807636
aF0.10342059726826847
aF0.05373656819574535
aF0.22981277550570667
aF0.11442520166747272
aF0.428987581981346
aF0.17604174162261188
aF0.2596078410279006
aF0.629701693309471
aF0.8190935447346419
aF0.7142381861340255
aF0.21621333505026996
aF2.0439275100361556
aF0.5940969183575362
aF1.1552220180165023
aF1.9338012530934066
aF1.585647304309532
aF1.7071840360295027
aF0.7600413158070296
aF1.2937595441471785
aF1.3507293059956282
aF1.7992224290501326
aF1.643744547618553
aF2.0932176902424544
aF1.2122784450184554
aF1.9232828214298934
aF2.3114143207203597
aF2.0139125182759017
aF0.81668980862014
aF2.0918804004322737
aF1.0733557536732405
aF1.9817331626545638
aF1.4753452136646956
aF1.7038362815510482
aF2.242144902003929
aF1.6243335797917098
aF1.6244965388905257
aF1.8530172898899764
aF2.5428288772236556
aF2.518430073512718
aF2.503715832484886
aF2.241339524043724
aF0.7599577500950545
aF1.9574083879124373
aF0.9962221577297896
aF2.177638132823631
aF2.2322209670674056
aF2.409740526927635
aF1.7039482190739363
aF2.537099440349266
aF2.2625945403706282
aF2.149890263332054
aF1.170677502406761
aF1.4781705930363387
aF1.2101360156666487
aF0.7925001576077193
aF1.6050983264576644
aF2.0567000701557845
aF2.2069128348957747
aF1.2214216783177108
aF1.9280777766834944
aF0.874735017074272
aF1.3922121122013777
aF2.0004461600910872
a.