(lp0
F-0.31734529893583385
aF0.24086315585009288
aF-0.09816130223043729
aF0.04927066089294385
aF-0.016110758951981552
aF0.21461323303810786
aF-0.0768113282538252
aF-0.42846127013035584
aF-0.19841643377731089
aF-0.05584378326602746
aF0.19832782847515773
aF-0.05720038498111535
aF0.12623560083738994
aF-0.30194869796105195
aF-0.08980286838777829
aF-0.07437642263539601
aF0.12177782999060582
aF0.0029544944845838472
aF-0.2100835328019457
aF0.21054558390460443
aF0.08344730522367172
aF-0.4026761517889099
aF0.03847874169878196
aF-0.023564180082757957
aF0.2604826859169407
aF0.056485556342522614
aF-0.10863494659133721
aF-0.0259098091191845
aF0.295578990408103
aF-0.11361042103089858
aF-0.1270231750822859
aF0.11170458448759746
aF0.019127534978906624
aF0.6456417583831353
aF0.11899415279913228
aF0.049742562041501515
aF-0.3310360160685377
aF0.12949617979757022
aF0.12839538911066484
aF-0.16538127856620122
aF0.1756396329801646
aF0.5707145801716251
aF0.3411612234049244
aF0.24868147847882938
aF0.35584908378950786
aF0.6927246361010475
aF0.81881805723242
aF0.4378996643208666
aF0.10905346302024554
aF0.31887124459899496
aF0.6773659557075007
aF0.21944549334875774
aF0.16577622322074603
aF0.3891924017079873
aF0.3825324161880417
aF0.25771864158741664
aF0.5027167259686394
aF0.4952659125410719
aF0.6281849968218012
aF0.019927792527596466
aF0.7226902984984918
aF0.13443602649203967
aF0.09642180571972858
aF0.022845933490316384
aF0.5449302720808191
aF0.39066868303052615
aF0.5017452401079936
aF0.29291028557054233
aF0.14759113946638536
aF0.3794626000308199
aF0.918023408667068
aF0.14977164966694545
aF0.26210868199996185
aF0.8252969098248286
aF0.5732043127500219
aF0.06977536184422206
aF0.35413960860751104
aF-0.013587731591542251
aF0.30952311521105
aF0.33109352392784785
aF1.7486021480362979
aF1.8250710557185812
aF1.2274618766241474
aF1.2101545038603945
aF1.9638930813380284
aF0.3749161253654165
aF1.055358110970701
aF1.2591852101468248
aF1.9081134947919054
aF1.1177332366787596
aF1.0680816382227931
aF0.5017099755787058
aF0.9460617618606193
aF1.8002602032356663
aF1.545056946852128
aF1.1973282176040811
aF1.8518143233814044
aF0.9245545643352671
aF2.332015842475812
aF0.7819222512625856
aF0.9494838717364473
aF1.8183176585444016
aF2.065752804555814
aF0.012962840773980133
aF0.35294944820634555
aF2.141866048259544
aF0.9410402265348239
aF2.0281380175583763
aF2.1837552118086023
aF0.6176876875542803
aF1.6267943981074495
aF1.285078846194665
aF1.8369156162225408
aF1.2419101822160883
aF2.0899338361778064
aF1.5932260400586529
aF0.8745999860548181
aF1.6304973180376692
aF2.124045134332846
aF0.978473931827466
aF2.032997757087287
aF1.1712080094002886
aF3.7386794800841017
aF2.9908297623478575
aF0.6872221308731241
aF2.5208707286947174
aF3.7352236120932503
aF3.1858016776823206
aF2.945569440998952
aF3.205980941929738
aF1.3937561440252466
aF1.3331750634097261
aF1.266450643815915
aF1.3179961631976767
aF1.6983530151628656
aF1.995744783707778
aF1.752055980541627
aF1.8540583032154245
aF2.6786691744200652
aF2.403236588506843
aF1.2992060783290071
aF3.0379003512643976
aF2.9279700147890253
aF1.3313108908914728
aF1.3803741934680147
aF1.4617885130428476
aF2.2397825161897345
aF1.987222865500371
aF2.1334472105809255
aF0.3604590746545
aF1.3161282095097704
aF1.0478719177626772
aF2.4855037259840174
aF3.2796949188195867
aF2.2558023261808557
aF2.5214870127820177
aF3.876282185592572
aF2.9928826021932764
aF1.6211857500456972
aF3.0753698426269693
aF3.6708633600574103
aF1.4659638929151697
aF2.0428430887841387
aF3.2510752457164926
aF2.8546453493618174
aF3.779047452189843
aF0.9075029048108263
aF6.1334346926742
aF1.131565742471139
aF2.8623229701042874
aF1.324085653104703
aF2.648068763592164
aF2.615868062057416
aF1.0119886922620935
aF3.7492076533817453
aF3.5008226188801927
aF3.987679019846837
aF1.2698396894120378
aF2.7832168939494295
aF5.668737612941186
aF2.7371244545065565
aF1.2776199209474726
aF4.162815333620529
aF4.317533955254476
aF2.0200206938170595
aF2.0536549243115587
aF4.860103134342353
aF2.572673954346101
aF3.800223566868226
aF4.513876516648452
aF3.268780786820571
aF1.0748192149185343
aF5.5200031067215605
aF3.0545836540841265
aF6.070299883649568
aF4.34563776878349
aF3.095853723862092
aF3.823347803481738
aF2.5629708955966635
aF3.4769956621312303
aF3.9960181339483825
aF5.483131617584149
aF3.518493999072234
aF5.096354674824397
aF5.373342695456813
aF4.912682868816773
aF5.45334659916989
aF3.171628922500531
aF5.518623948373715
aF5.222433306553285
aF5.838180393257062
aF3.720134333052556
aF4.2480044386320515
aF4.11212362749211
aF5.4978377598308725
aF4.352787159659783
aF4.510756157615106
aF6.565409595423262
aF6.397457536586444
aF2.675919331886689
aF3.0685705917858286
aF2.0450622442149324
aF2.2016944217466516
aF3.7969527619861765
aF5.741153419294278
aF4.218569048025529
aF5.302884154298226
aF3.5345186519407434
aF2.3028964775585337
aF5.342859648444573
aF1.4680478948139353
aF5.961332567312638
aF1.8102277296566172
aF4.586693741657655
aF5.327258188553969
aF5.377381205835263
aF4.124352563449065
aF7.587901562728803
aF6.066651460059802
aF6.287282467164914
aF2.7302350118770846
aF4.808787502624909
aF4.407087978252093
aF6.272971466460149
aF6.608683338199626
aF7.029610894896905
aF7.426412463464658
aF2.6877600925945444
aF3.776311040201108
aF5.558333382286946
aF5.924574233868043
aF2.0489730912231607
aF3.7776106822275324
aF5.869672023036401
aF8.501047067620675
aF8.027679868318955
aF7.610422358193318
aF2.549835838653962
aF4.658013902881066
aF5.975968934872071
aF5.310192088873009
aF4.85510258404247
aF7.946902880721609
aF8.119239755251328
aF5.50915481922857
aF7.735744737365167
aF9.394902206768165
aF4.273701630809228
aF4.6756845566414995
aF4.7208725142263575
aF5.240646027305047
aF4.029527273305575
aF3.4233936521195574
aI0
aF7.749279331692378
aF7.469087600984494
aF6.358768459685962
aI0
aF-2.9465003684163094
aF7.7669966447137995
aF6.9000090884946985
aF6.841632709183614
aF4.405495438477374
aF9.005223013737123
aF8.66037683961622
aF7.186926327922265
aF2.950952932515065
aF7.498804725983064
aF8.831155192383449
aF6.7063460725330515
aF6.6098936128400965
aF6.5816043543600244
aF7.339756511428277
aF7.506936811187188
aF10.084119750463287
aF6.216712877430837
aF7.63884665844671
aF7.279701129809837
aF9.02841335562698
aF6.083962343909661
aF5.10262304385833
aF6.279890112855355
aF5.37616046545736
aF5.61115118143789
aF5.632575065174024
aF8.028840892293374
aF6.870988928058068
aF6.4941459189140005
aF5.323907532074372
aF5.9656480926059885
aF5.739078469850938
aF3.9625633734249277
aF5.62026726482145
aF5.016961194851319
aF5.929088913180749
aF8.442377321698586
aF9.489510268249433
aF5.405603222825448
aF6.035768784859101
aF8.445237264313619
aF6.227663629033486
aF8.81660713283054
aF5.201070159564551
aF8.508624270834844
aF9.443102129080216
aF7.154319569744985
aF9.884067517050426
aF8.0720725881838
aF10.5954569059395
aF8.425738424339215
aF-1.951267346739769
aF7.544418521501939
aF8.897480763771455
aF8.513214685299317
aF7.765485275813262
aF8.633147915170412
aF6.9358333799027605
aF9.248980585762183
aF7.56823810217611
aF10.24021994722716
aF7.137528382518212
aF8.074234318264644
aF9.218640908875386
aF-2.5327119370922446
aF7.432922743537347
aF9.25930971679918
aF8.860987512671272
aF10.437697716333787
aF6.594894383379142
aF8.659225315132062
aF8.365103755422751
aF8.648972571172635
aF4.419060260333936
aF7.50298852501146
aF9.947271518685739
aF8.731755990811507
aF8.137157842793385
aF9.88541046557657
aF6.290637766287546
aF9.290210664548795
aF8.585320528873126
aF8.498479970076005
aF9.547132402549323
aF8.03271664706699
aF9.84285073755018
aF11.315782111414592
aF9.240409866251866
aF8.085478864886682
aF10.21995801878802
aF8.440959951185505
aF9.470226257617469
aF9.267873451390187
aF8.632118836321752
aF11.110733583846013
aF6.968923494496266
aF10.66025227708451
aF5.852876493518124
aF8.603187300541322
aF9.050278835275094
aF7.820068303772132
aF9.126997277417104
aF9.031816482820432
aF8.418437637665193
aF8.337269261755864
aF1.2794952280819416
aF10.061973970659892
aF9.279680870749871
aF9.559750542321126
aF10.688640567750554
aF10.43684263182513
aF8.04225166728429
aF10.027415663280408
aF8.397353709951858
aF-1.9087515072897077
aF8.456926033177297
aF9.735122680940549
aF10.09727111486427
aF9.976303264775197
aF7.312888823726098
aF9.604557216443936
aF6.440027304270188
aF9.676515035607736
aF5.435569549736101
aF9.802423551955144
aF10.233686020874302
aF11.219332408436458
aF10.23395715681545
aF10.426619485297124
aF9.555239998080651
aF10.011774882950704
aF9.248707838632981
aF10.498717217051308
aF10.194888063051621
aF10.674581997373025
aF9.858900852777879
aF9.713714352619718
aF10.287558850177447
aF12.072150272360886
aF11.172284060667153
aF8.990861051061074
aF9.645429760494153
aF9.817051332720439
aF10.21231273356534
aF9.567456268050591
aF9.83660156307451
aF10.470847072356264
aF9.920666091420571
aF9.261001296617906
aF10.59389645983174
aF10.327617637158255
aF9.096767254450242
aF8.16164983836643
aF9.416661732175271
aF10.662396274783532
aF9.447938338198583
aF10.273819960930268
aF9.707395345249097
aF10.154155105628888
aF10.40464127836458
aF9.216738179602544
aF10.079672210194985
aF9.313281983413617
aF5.354710738720314
aF10.642876945712487
aF9.718468910359661
aF11.11826520813338
aF10.16920504560403
aF12.399061372780125
aF10.948044764154474
aF9.873021230378072
aF9.396597095110337
aF10.019701592900674
aF11.126088410892407
aF10.851846657969872
aF10.026184529342572
aF10.948362261333386
aF10.719039574541966
aF11.9299993331515
aF11.25599759099714
aF11.790679939367692
aF9.320351802089135
aF8.820578478553216
aF8.988779796563904
aF9.23444519219629
aF11.407459484689753
aF11.307271695040981
aF11.44677615193359
aF10.368805848338525
aF8.997323135190527
aF10.662767413814436
aF10.614667970730807
aF10.792787172176759
aF9.008311949946801
aF9.466912173011224
aF6.968895741083543
aF11.196945537158172
aF10.643754102566163
aF11.240401993782143
aF11.72716066641442
aF10.44992374656431
aF10.231039993741433
aF9.730074866020004
aF8.944702431836049
aF8.2713120144399
aF11.117688533195178
aF10.306903593518655
aF10.745197296419065
aF10.995429255344789
aF8.512097060956876
aF10.303876050093095
aF11.58713365373842
aF11.907029044159572
aF10.193306193032186
aF11.55927278501622
aF9.684082813837449
aF10.560835073047201
aF10.946950786092202
aF10.590470171810011
aF10.978786967971246
aF10.841205515243928
aF10.491651393749635
aF11.897114489038358
aF11.71895737228624
aF11.586173087634961
aF11.895134806909482
aF11.270302966513555
aF11.247012861349504
aF11.322887450733106
aF11.262684338071267
aF10.95329815922014
aF10.289533533432405
aF10.902887381889741
aF11.153423268624465
aF11.82343757180206
aF11.470707975604455
aF10.739937000253121
aF11.751476157733123
aF-2.443507146090269
aF10.789027460195939
aF10.752333816417377
aF11.374052580722491
aF10.31758493212692
aF10.99530546394817
aF10.11175885785633
aF11.57670550448529
aF13.177068479635636
aF10.970160760261933
aF10.450657703258912
aF12.104960069336812
aF8.511329762914102
aF11.614216141679208
aF11.505844783314387
aF10.208187265598099
aF12.218281958703301
aF11.60961693552963
aF11.395447638860787
aF11.779978949853103
aF10.96239464757673
aF10.430636130549829
aF11.239374004580895
aF10.972481243588845
aF11.212526698873262
aF12.566382181175868
aF9.522431366422097
aF12.00756591213576
aF9.300657328494708
aF11.57835359153978
aF12.055289600320975
aF12.180995721646468
aF9.987648003079812
aF10.651514068522374
aF11.765019655504148
aF10.49472155449621
aF10.088502340295236
aF11.382747985699098
aF11.798686072506825
aF10.781238325216691
aF12.283076405801694
aF10.485123120524804
aF10.847611896970193
aF11.969601897799294
aF11.326261902504484
aF9.159253187754075
aF8.857014842360513
aF11.141916312553803
aF11.767151778840343
aF11.458744876363198
aF11.364295713647152
aF10.91439905045263
aF10.678057842233102
aF11.272895852380316
aF11.911964793034713
aF11.913183819779078
aF11.8927594593697
aF11.95731476349465
aF10.92908567217819
aF11.58379594264261
aF11.33432129798166
aF10.61368445334665
aF11.768630709775607
aF10.337471388556878
aF9.983228840210359
aF11.934837609805982
aF11.85994619903795
aF11.227203574308078
aF12.020367350705783
aF11.856364509367268
aF11.15729388249747
aF12.4022838233941
aF10.214207642056863
aF11.225596111544291
aF-3.023481108248234
aF10.615855030991952
aF10.683381077178637
aF10.770035036184709
aF11.740137510278146
aF12.744270660259645
aF11.482131559678237
aF9.52978756678931
aF10.93687246022455
aF9.799321707614581
aF11.229220995955984
aF11.146534145154874
aF8.936271630118426
aF12.913831159748952
aF11.463245697595994
aF10.796901308276574
aF11.977750458099763
aF11.388591327049653
aF10.43804437322251
aF11.271967053689878
aF11.597158856966416
aF11.063713994153659
aF11.205352194883744
aF11.740083717086236
aF11.752472095467965
aF12.087307669498841
aF11.591741893716971
aF9.959890743994038
aF11.909794308521668
aF12.504739672222058
aF12.361044706121902
aF12.247237008341472
aF12.194555051901261
aF11.64328637001745
aF12.778088733830373
aF13.069859779716353
aF10.4023761155986
aF11.376980081477086
aF10.911807775773923
aF9.526546024062554
aF10.503804762192885
aF10.743668046125094
aF11.791881569006364
aF11.530920494624297
aF11.287703462221543
aF12.633398821853916
aF7.579747852214496
aF10.837487302997033
aF12.52810480473272
aF11.431650392987649
aF8.93030657833151
aF12.076132012807648
aF9.030048536151298
aF12.278675999768893
aF11.595049672105233
aF13.053030096270959
aF12.11282046911947
aF10.72854969119362
aF11.992225930371205
aF10.481457732894341
aF11.754317529776017
aF12.797621092104237
aF11.948083251991193
aF11.604272224285523
aF10.914570190288941
aF12.021388639041106
aF12.849498935320298
aF12.221701838352601
aF11.44115055380098
aF12.798093705714564
aF13.20021510058723
aF11.1408141481661
aF9.498068936445634
aF12.15603935001127
aF11.232017822840135
aF12.417619753905456
aF12.580789648272912
aF10.166819937803666
aF10.51248817173473
aF10.926824830748956
aF12.381202601172845
aF11.379889123418252
aF11.093931434952538
aF9.976076562234084
aF1.978065399453044
aF12.66310950210027
aF12.45837519345514
aF12.321109920085291
aF11.801551565804402
aF10.66801360277168
aF12.21038679992489
aF12.98141300379939
aF8.546965122113761
aF9.809468839594047
aF11.12754466412298
aF8.568301186242024
aF11.6003851446294
aF8.616443001010339
aF11.675288550832192
aF12.138949562140624
aF12.206019111254136
aF13.060106103584985
aF12.73581735258631
aF12.551491106205503
aF11.311470330037992
aF12.61969622624747
aF11.882463492729585
aF11.152350068368833
aF12.292809290156583
aF12.857665702977101
aF10.829300977566163
aF11.551911928036134
aF11.65275494036905
aF10.480073032013024
aF12.656871224098722
aF11.297878254481475
aF8.72610172657005
aF12.37836009291641
aF12.211264394500176
aF12.132109798767488
aF12.33062936393253
aF12.151102558054845
aF12.61858923760883
aF12.315056421139161
aF12.055039242186467
aF12.659451686122338
aF10.802231304624001
aF12.339405086167972
aF12.84416989008605
aF2.716386787869851
aF12.641376209721784
aF12.400704691463034
aF7.505999065688229
aF11.271900631763856
aF13.076262649192358
aF12.316928034924786
aF11.52893832353584
aF11.471702963390271
aF11.15695301843516
aF9.471578397133271
aF11.511605311461608
aF12.529770419278066
aF11.304483026542584
aF10.779178016164224
aF12.41939444495074
aF11.134720232148538
aF11.075173139033723
aF12.600469891258399
aF12.002160087504308
aF11.672902521022479
aF11.379293933787267
aF11.938948132374207
aF13.27827355293266
aF10.468803406038205
aF11.76981843476824
aF12.37425838065974
aF12.656790040709893
aF11.08777234730951
aF12.188212819673936
aF11.898302728586714
aF12.201905273177545
a.