(lp0
F0.03025464509119047
aF0.05101971355907153
aF0.03882347074977588
aF0.007286882682819851
aF0.05873972522385884
aF0.04669836880930234
aF0.07053846465714741
aF0.07410742687352467
aF0.03994506569870282
aF0.032862312815268524
aF0.01623469563492108
aF0.031565990575472824
aF0.019412040986935608
aF0.03652763394347858
aF0.012375415026326664
aF0.03161759274371434
aF0.014484583123703487
aF0.01300879726477433
aF0.06837787078984547
aF0.010947727321763523
aF3.85867606382817e-05
aF0.06309311436780263
aF0.00882088924117852
aF0.022882305362145416
aF0.014445418768445961
aF0.036621134451706894
aF0.03256814154156018
aF0.03197581293352414
aF0.0370546060585184
aF0.013494907601852901
aF0.03555566472641658
aF0.014846530088107102
aF0.01752609787217807
aF0.011508130191941746
aF0.001689051670837216
aF0.0023997065582079813
aF0.049659598342259414
aF0.03622674541838933
aF0.007437539010425098
aF0.006109930298407562
aF0.02335807885538088
aF0.01043432364531327
aF0.0248925111227436
aF0.047001708575407974
aF0.04115550247661304
aF0.008751383327762596
aF0.02682020673819352
aF0.033396031431038864
aF0.07023109095462132
aF0.006380560065736063
aF0.0065054383157985285
aF0.02381567629345227
aF0.013416480549494736
aF0.004816004351596348
aF0.014282224423368461
aF0.04320079860917758
aF0.02809242690273095
aF0.040053434946457855
aF0.04894063221581746
aF0.02557481853000354
aF0.006129913686891086
aF0.09090283857949544
aF0.002916905519668944
aF0.026194017656962387
aF0.028816309102694504
aF0.06705882000096608
aF0.015090464337845333
aF0.045398298927466385
aF0.0032155525841517374
aF0.019671309462864883
aF0.0046298869856400415
aF0.05203004209033679
aF0.02156139006547164
aF0.005827225089888088
aF0.045196883103926666
aF0.007065844067255966
aF0.007321971745113842
aF0.0418665071047144
aF0.029395314209978096
aF0.023929223694722168
aF0.06236291136156069
aF0.023676976838032715
aF0.0219432062440319
aF0.008378859332879074
aF0.004142340927501209
aF0.05046191038854886
aF0.002318490805919282
aF0.06751451296440791
aF0.059552501610596664
aF0.029475852570612915
aF0.003162766181048937
aF0.10266677690378856
aF0.0025287793978350237
aF0.019701795376022346
aF0.031072359808604233
aF0.08527804566256236
aF0.008392139614443295
aF0.06863744212023448
aF0.03952519995800685
aF0.04947366220585536
aF0.08345031338103581
aF0.013444775060634129
aF0.05116637451283168
aF0.06814159108034801
aF0.09469459606043529
aF0.0015047053602756932
aF0.012794255555490963
aF0.029288483507116325
aF0.05670645488135051
aF0.12420151727565099
aF0.05200340943702031
aF0.05312117589346599
aF0.029530585088650696
aF0.0566340650402708
aF0.00493945115886163
aF0.030215027087251656
aF0.09007045281759929
aF0.04116126867302228
aF0.006553930972586386
aF0.02387777371041011
aF0.0523378683210467
aF0.0675821344339056
aF0.01697479961148929
aF0.0489060956024332
aF0.11422063065401744
aF0.008427618347923271
aF0.021074531323392875
aF0.05869943248399068
aF0.09152172105677892
aF0.05507926242717076
aF0.05546569479338359
aF0.05017598373524379
aF0.12308165030844975
aF0.05936737386218738
aF0.07320019257895183
aF0.055067412278731354
aF0.08597190333239269
aF0.0713151807867689
aF0.000826797928311862
aF0.003007725768839009
aF0.07943834764591884
aF0.04420724856026936
aF0.027701642640749924
aF0.06597819579474162
aF0.07372053367726039
aF0.015562188156764023
aF0.02845401289232541
aF0.0455915371858282
aF0.008032177851418965
aF0.09082968132861424
aF0.08837381405464839
aF0.05544804436794948
aF0.04129337919584941
aF0.026045895836432464
aF0.07540684593550395
aF0.057918016143958084
aF0.08731286627880763
aF0.06793058263428975
aF0.09454616504081059
aF0.06534073902003001
aF0.05494145880948054
aF0.07030972493521404
aF0.09522048039070796
aF0.07108278917439748
aF0.07242955612309743
aF0.0251803661667509
aF0.08278511064418126
aF0.0017326942615909502
aF0.09356761323579121
aF0.003158591498504393
aF0.05125197368033696
aF0.09929616404406261
aF0.035854872039635666
aF0.05464481962553691
aF0.031242024429957382
aF0.06674302714236546
aF0.0659918229066534
aF0.06949255270592403
aF0.07548697692982387
aF0.0661112333618803
aF0.04065387723676395
aF0.14033418548933696
aF0.010631694181938656
aF0.04799482626549434
aF0.052435774632613175
aF0.09742904799350072
aF0.04429921535484027
aF0.10966642545827199
aF0.0952773208700819
aF0.018113091864506714
aF0.04494204344518948
aF0.07192741679318715
aF0.023173734269221313
aF0.08916185396083165
aF0.007425847739796154
aF0.06363360983959865
aF0.07686961842409801
aF0.042407043554703705
aF0.05794247212179471
aF0.0613151232682867
aF0.086224788617983
aF0.015772391387145035
aF0.059474996945937164
aF0.024538569428841583
aF0.001982058587600477
aF0.03657228899828624
aF0.05668526115186978
aF0.08830290632613469
aF0.06979217035404872
aF0.04319972945086192
aF0.03277914626232814
aF0.0657273639953928
aF0.008985096865217201
aF0.06150020686618518
aF0.09257407831319142
aF0.09006699574820232
aF0.15068087326653767
aF0.015373023503343575
aF0.054284587225993164
aF0.10599674629338551
aF0.19503112482198048
aF0.10378947453864384
aF0.11592603074677754
aF0.09965069247118663
aF0.12434586482413579
aF0.0712147240556078
aF0.04671352756849956
aF0.08303445232741069
aF0.1228051300131483
aF0.05075762020715047
aF0.09836678551801015
aF0.0629090483271284
aF0.09693564819463063
aF0.039576131573994644
aF0.025065020003239624
aF0.051714326909859665
aF0.03513466539152432
aF0.03821175890334416
aF0.05272538932331372
aF0.04898503022559453
aF0.13953691889037145
aF0.20094289230473805
aF0.027706101260264404
aF0.058659326008637436
aF0.0033072272344725206
aF0.05151507603295613
aF0.04391136365302373
aF0.14704700159200002
aF0.10222670035727788
aF0.05962512297264766
aF0.14236398386128712
aF0.2377825860894518
aF0.21114960657723714
aF0.18873659121163655
aF0.03359002219804097
aF0.06325601386197377
aF0.057208869882742874
aF0.19582362817891408
aF0.20481589781411458
aF0.1901727502263384
aF0.010470007822732441
aF0.1030776838742895
aF0.015037672870676033
aF0.029589277037302963
aF0.25652489411004353
aF0.04569790112145711
aF0.0062746282637817785
aF0.1307995651877718
aF0.11762962835200597
aF0.02606176985136699
aF0.13633117424615193
aF0.03571335943706799
aF0.05111130299337674
aF0.0
aF0.023104243256966583
aF0.05327048497565556
aF0.039254989198525436
aF0.039254989198525436
aF0.09276294363371562
aF0.06637343419424724
aF0.057771268955548294
aF0.05457184118859004
aF0.06054282392869936
aF0.1475925033009844
aF0.1495543156779604
aF0.3119063709891634
aF0.04943731827370357
aF0.22960616993077565
aF0.04577803584106732
aF0.03796960068575572
aF0.17624324905045796
aF0.1006232534564333
aF0.22160694347985554
aF0.14054569257132243
aF0.022164492213050835
aF0.04745618598826695
aF0.07615264905325603
aF0.015649072171072476
aF0.04820987182029057
aF0.22173497425683308
aF0.019053442680160515
aF0.14733725441328716
aF0.4151999090827303
aF0.30585721480019856
aF0.035511840411345474
aF0.05712712155946065
aF0.44484177576669026
aF0.016070351281086914
aF0.20326079773076344
aF0.03846861766942311
aF0.16290031718381215
aF0.16238506483205128
aF0.13238978730805684
aF0.10260827494494151
aF0.22434714781411458
aF0.1127159629977541
aF0.04476933581463527
aF0.09125023735396098
aF0.08631445812352467
aF0.11511478917964268
aF0.3184936081088381
aF0.04279333753220271
aF0.04136441479931818
aF0.06399572985537816
aF0.17941515492566396
aF0.06620636982552242
aF0.01886143563024234
aF0.290329489580472
aF0.06334339427121449
aF0.09697777377732564
aF0.12342292415269185
aF0.06602869583002757
aF0.08577837394841481
aF0.015578817852656357
aF0.035082266011158936
aF0.005504498913069256
aF0.03289322154887486
aF0.025346673748572357
aF0.3027613495505648
aF0.009727068521897309
aF0.31135455118783284
aF0.02878612252243329
aF0.12143800752528477
aF0.12782301288098097
aF0.1917632554686861
aF0.09704803275235463
aF0.01799614568881225
aF0.11160479830869008
aF0.041526079454342835
aF0.038540173598448746
aF0.03930860785476398
aF0.10374757247336674
aF0.08921347958676051
aF0.16714643286832143
aF0.024330195315997116
aF0.03724779216281604
aF0.04733696980110835
aF0.011283177605946548
aF0.0013432453415589407
aF0.1053820510423975
aF0.039669402220170014
aF0.06679026437632274
aF0.06274886597384466
aF0.06412476701370906
aF0.055616680256207474
aF0.0035021004296140745
aF0.04748994512192439
aF0.05349257243506145
aF0.030735432825167663
aF0.016276953465421684
aF0.0018775066855596378
aF0.047151367834885605
aF0.04969746274582576
aF0.038912657924811356
aF0.08461848301521968
aF0.027897745647351258
aF0.005756437967647798
aF0.09195681261189748
aF0.2510780726588564
aF0.03082957891456317
aF0.05160335106484126
aF0.07412471277348232
aF0.07188428593508434
aF0.06308114928833675
aF0.03976080194115639
aF0.04006418558128644
aF0.2569132779754
aF0.09454629915126134
aF0.008093786702374928
aF0.021716534814913757
aF0.02432602430053521
aF0.04236041409603786
aF0.012029058576445095
aF0.031028829791466706
aF0.015110645719687454
aF0.022760417035897262
aF0.04025744991668034
aF0.11116818683512975
aF0.3153149153076811
aF0.013449754289467819
aF0.12530479980341624
aF0.11913198577531148
aF0.0004342683023423888
aF0.05227578086487483
aF0.02150675440498162
aF0.04939621659286786
aF0.031887028642813675
aF0.07391489642031956
aF0.04991951239935588
aF0.019322972468216904
aF0.11630903529294301
aF0.02145029445819091
aF0.06814752174250316
aF0.1242121492541628
aF0.017343264349619858
aF0.004129096676479094
aF0.051109202482621185
aF0.0011653290566755459
aF0.001767691268469207
aF0.14716804372437764
aF0.050532687731902115
aF0.009157382228295319
aF0.0037740588159067556
aF0.07181188119284343
aF0.11974607752927113
aF0.023371273928205483
aF0.2859003578341799
aF0.06901810718409251
aF0.0028980848874198273
aF0.00892885094799567
aF0.1860724573052721
aF0.08248240845568944
aF0.26141298162110616
aF0.15585342394479085
aF0.06126195592514705
aF0.1950991337216692
aF0.04343842370144557
aF0.05272643668286037
aF0.009538334139506333
aF0.048464785984833725
aF0.28279829370148946
aF0.07201998335949611
aF0.017918102166731842
aF0.044333961137454025
aF0.027326172494213097
aF0.03179086027375888
aF0.01022646417550277
aF0.02055426528386306
aF0.007948825412313454
aF0.05513797300227452
aF0.07357047153345775
aF0.10611140383116435
aF0.04381965500942897
aF0.21562423957220744
aF0.06415729624859523
aF0.03588925702206325
aF0.035067032746155746
aF0.019890211799065582
aF0.15893715964921284
aF0.040323298700968735
aF0.3559286926902132
aF0.09475908028252888
aF0.013154713713447563
aF0.17291303323872853
aF0.012593457751790993
aF0.009114963657339104
aF0.10024836259253789
aF0.06214622007973958
aF0.013791488760034554
aF0.0067578090383904055
aF0.0019577774655772373
aF0.006216358669917099
aF0.17095771776803304
aF0.2525361512816744
aF0.09280894351832103
aF0.03791777817241382
aF0.06786472750536632
aF0.012179796860436909
aF0.0166032317065401
aF0.18232059133879375
aF0.0907757247769041
aF0.02240133126906585
aF0.04632679028145503
aF0.011106088575616013
aF0.05151016292802524
aF0.016923073402722366
aF0.07652964098087978
aF0.18718190146319102
aF0.12455316288105678
aF0.1046868975245161
aF0.14221255826123524
aF0.022005080900271423
aF0.06676242845423985
aF0.061429284236510284
aF0.06554244113794994
aF0.026034551017801277
aF0.06016385210386943
aF0.0125087804190116
aF0.02474602712027263
aF0.06879712296358775
aF0.12723739100329112
aF0.002641899700392969
aF0.02574991034634877
aF0.08671211106411647
aF0.03670479757420253
aF0.09511566562287044
aF0.13125757528177928
aF0.018725861140410416
aF0.08408081876405049
aF0.0864727313601179
aF0.06762720299593639
aF0.07964791012636852
aF0.02880425778857898
aF0.07049228651158046
aF0.15255644572607707
aF0.08877497566572856
aF0.026004240193287842
aF0.13678611470095348
aF0.012436557284672745
aF0.05921126184694003
aF0.06124771414033603
aF0.052900273629347794
aF0.042938511542160995
aF0.10018054972897517
aF0.02299259630672168
aF0.033879559763590805
aF0.177211415299098
aF0.12497444795735646
aF0.06658098501793575
aF0.05365576995245647
aF0.07540076626173686
aF0.04425983903638553
aF0.005468791074235924
aF0.0006290915043791756
aF0.07790775997273158
aF0.00297917980060447
aF0.0427440029598074
aF0.16345220459334087
aF0.15566268218390178
aF0.15978113161691
aF0.1381256545864744
aF0.00494867870293092
aF0.02084791632660199
aF0.2573140894091921
aF0.05805064020387363
aF0.057211287596146576
aF0.09734187675348949
aF0.018500812075217254
aF0.0299784096860094
aF0.29418325079313945
aF0.039887260369141586
aF0.07779254419438075
aF0.030865635999361984
aF0.3276298607670469
aF0.17084796381823253
aF0.04893461959727574
aF0.08272437406412791
aF0.07227459149726201
aF0.2451639507926302
aF0.1356276308215456
aF0.012337466425378807
aF0.030651869528810494
aF0.18661744547716808
aF0.22111478279839503
aF0.06762077259190846
aF0.02698088278702926
aF0.0843033825076418
aF0.002443119461531751
aF0.15024766670831013
aF0.14710992919572163
aF0.028220290041645057
aF0.03718973723880481
aF0.04044175120361615
aF0.020284460581024177
aF0.039781398794730194
aF0.07755121188529301
aF0.1265932505048113
aF0.20577551769383717
aF0.020827311745961197
aF0.05277404961816501
aF0.16128453957207967
aF0.1324819509900408
aF0.08959244591824245
aF0.08671997832425404
aF0.03603992638818454
aF0.0177585926867323
aF0.014809725529630668
aF0.05924103436700534
aF0.029735369331319816
aF0.05977749479643535
aF0.042906611881335266
aF0.014970846474170685
aF0.06903403652540874
aF0.05115564139850903
aF0.13357560681470204
aF0.08605104339949321
aF0.06771309328905772
aF0.04151388230093289
aF0.04786185892589856
aF0.1657443826115923
aF0.0504753735876875
aF0.021485233402927406
aF0.017368752785841934
aF0.061247581434145104
aF0.039117853812058456
aF0.09047948168881703
aF0.2629515265143709
aF0.10994138168462086
aF0.025033730737050064
aF0.04733327058784198
aF0.11098839742771816
aF0.03945813728205394
aF0.05362294586666394
aF0.08128838585980702
aF0.12718376172415446
aF0.06898540603287984
aF0.13257975531450938
aF0.036916375436703674
aF0.024701593167264946
aF0.10070689367421437
aF0.019201625415007584
aF0.014093286634306423
aF0.04874166128865909
aF0.08457593274943065
aF0.12644848572381306
aF0.05781177776225377
aF0.006252021252294071
aF0.10059222178824712
aF0.06572801964648534
aF0.1158902903116541
aF0.3306834434188204
aF0.0548364740825491
aF0.0549747792101698
aF0.13276247335306834
aF0.061687878987868316
aF0.17319415854581166
aF0.01724955225654412
aF0.02298355875245761
aF0.002525720468838699
aF0.15303143514029216
aF0.09081924306519795
aF0.019809188597719185
aF0.021228222452919
aF0.058034637761011254
aF0.059935905315796845
aF0.11127931224473286
aF0.0332060123764677
aF0.09168818248144817
aF0.002131605797330849
aF0.1048523594654398
aF0.07094332920678426
aF0.1808101420319872
aF0.01139562418393325
aF0.08365469770797063
aF0.17120857881673146
aF0.17561526941426564
aF0.04072027625807095
aF0.0654127483285265
aF0.10792406248219777
aF0.1559446339524584
aF0.008133472219924442
aF0.007309176682610996
aF0.0666588877356844
aF0.06722133206494618
aF0.1320418084942503
aF0.06367884921201039
aF0.02900611581571866
aF0.01750376475683879
aF0.0701156144059496
aF0.12354890602000523
aF0.13919017063744832
aF0.12881657136313152
aF0.11302423822053242
aF0.015481038295547478
aF0.025365785040776245
aF0.02100105742283631
aF0.030363736397703178
aF0.04961819601885509
aF0.01157862068794202
aF0.05211052698723506
aF0.06112467842467595
aF0.014206187523086555
aF0.0015072541282279417
aF0.2241949902891065
aF0.04348106654651929
aF0.16635521901480388
aF0.05205128686793614
aF0.04136599200137425
aF0.27145961271889973
aF0.07783937799104024
aF0.029585466065327637
aF0.08220742987759877
aF0.007015193536062725
aF0.028928274012287147
aF0.029511334651033394
aF0.06398054557212163
aF0.05046699223748874
aF0.14032472325197887
aF0.05356302457221318
aF0.007140527755836956
aF0.04563847584358882
aF0.13272459460131358
aF0.1049463336385088
aF0.0819730873190565
aF0.002652152019436471
aF0.026550354712526314
aF0.05424707355268765
aF0.06346009326807689
aF0.05536277992359828
aF0.059949371687253006
aF0.0406874601758318
aF0.0988130013429327
aF0.09347051782242488
aF0.04642975730530452
aF0.07726652575365733
aF0.09497774047486018
aF0.07310333503119182
aF0.06040561544068623
aF0.054747506699641235
aF0.0026227832277072594
aF0.3155447210156126
aF0.011549937262316234
aF0.022375183456460945
aF0.1532520187975024
aF0.07982320738665294
aF0.0028781322325812653
aF0.01778203835419845
aF0.0691138465917902
aF0.03176259594329167
aF0.045463889560778625
aF0.11989166187413502
aF0.046045176408370025
aF0.0858030657254858
aF0.09762960272200871
aF0.2898564373172121
aF0.02186363907821942
aF0.005328669023583643
aF0.0006447574851335958
aF0.032615214862744324
aF0.058449212738196366
aF0.054831161818583496
aF0.05011470215686131
aF0.08977026892534923
aF0.06116395098797511
aF0.04109611017338466
aF0.02561154375143815
aF0.04070594189397525
aF0.0388556386315031
aF0.01655716849199962
aF0.04162226272455882
aF0.004180708623607643
aF0.1865914727532072
a.