(lp0
F0.15030018577817827
aF0.9055758071190212
aF0.31619351255358197
aF0.6678084692975972
aF0.7363057219481561
aF-0.7080968665832188
aF0.373303684318671
aF0.2904765297716949
aF0.09722869741381146
aF0.7041109343117569
aF0.31330218436778523
aF-0.25893950936733745
aF-0.041268897330155596
aF-0.2632146897667553
aF-0.9768234389775898
aF0.2719193873053882
aF1.2980264601355884
aF0.3010697838908527
aF0.316922402853379
aF1.0261958547926042
aF0.5231872377044056
aF0.9300786898529623
aF0.140346809203038
aF0.6163344708329532
aF-0.049547423695912585
aF0.4212656141316984
aF0.7099856763670687
aF0.8717084386444185
aF1.4332973574346397
aF-0.20697990534245037
aF0.39518367397249676
aF0.8175990906602237
aF0.6078242314106319
aF0.39306620266870596
aF-0.8490060466283467
aF-0.3012164319807198
aF-0.9934239285939839
aF-0.7778685736411717
aF0.5541904237179551
aF0.2630764422065113
aF-0.19126280618365854
aF-0.550857075577369
aF1.0429140216729138
aF-0.18099812892614864
aF0.27099058861494996
aF1.9641065401083324
aF-0.49978563663898967
aF0.27859376641572453
aF1.081569508096436
aF0.857397143408889
aF-0.3968822407478001
aF2.5615957147965673
aF-0.26415029642521404
aF0.17415601658285595
aF1.070952693844447
aF0.5955545221513603
aF0.8629305766953621
aF0.8313437245669775
aF0.5795793225115631
aF-0.3895124244445469
aF0.21031916039646603
aF0.4137592100596521
aF-0.523675774311414
aF1.0932907079404686
aF-0.13468237695633434
aF0.482622616837034
aF0.2435410012549255
aF0.2793306102103088
aF0.824120406905422
aF-0.00969218192039989
aF0.21201703595579602
aF-0.09968813610612415
aF0.5965535146242473
aF0.7256144694110844
aF-0.016508606349816546
aF0.753342373209307
aF0.1882317465788219
aF0.632919928902993
aF0.11676782640279271
aF-1.3899976956599858
aF0.3804479236714542
aF0.8935732896497939
aF1.3076448616629932
aF0.7936267637705896
aF0.20128011601627804
aF0.9543812823540065
aF1.002145037491573
aF0.32350356588722207
aF1.1021307659393642
aF1.085272029886255
aF-0.16920311478315853
aF-0.09439250556170009
aF0.11651566150248982
aF1.2671493356174324
aF1.057875844562659
aF1.5294758595700841
aF1.3924264711386058
aF0.4959235143905971
aF0.5577840552723501
aF1.213318443769822
aF0.5986001891142223
aF0.9059579054883216
aF0.6916234073287342
aF1.1754961115366314
aF0.9377416923234705
aF-0.13758754459558986
aF0.6946700428670738
aF0.9598427814489696
aF1.3305128914362285
aF1.1274887797480915
aF-0.10383801636635326
aF0.5865968194848392
aF0.9791431100165937
aF0.33302085372270085
aF1.0783418071514461
aF0.22236391800106503
aF0.9703270335739944
aF0.7610937011486385
aF0.8144315135723446
aF1.0919631448632572
aF1.5240711584920064
aF1.3659497154003475
aF0.2670552257040981
aF1.1892375153547619
aF1.745403938839445
aF2.016578222537646
aF1.2109619182592724
aF1.2761122536903713
aF-0.16048284349380992
aF1.778103019023547
aF1.1671147857850883
aF0.5504260760790203
aF1.8184342411404941
aF2.4985299435502384
aF1.3295203250891063
aF1.2266228896623943
aF1.3712330338603351
aF0.7733150933927391
aF1.707995628385106
aF0.9260426451510284
aF1.1661930930858944
aF0.39713884601951577
aF0.23726003142655827
aF0.6667590689903591
aF1.3757248398906086
aF2.8387868394202087
aF1.332458834076533
aF1.455459649587283
aF0.6366624672955368
aF0.49075340750277974
aF-0.1515351618581917
aF0.7643092972284649
aF1.449041123414645
aF1.803138292307267
aF0.8926404350495432
aF1.140755320811877
aF1.3405828354007099
aF1.2792222936695907
aF1.450283619487891
aF1.1215622899180744
aF2.210220730630681
aF1.605327556753764
aF2.146631422365317
aF1.7026998651272152
aF2.5545541000610683
aF1.6735733103996608
aF2.1746311140304897
aF1.4378208470589016
aF1.4339442354685161
aF2.17097075554193
aF1.4767770272737835
aF0.8961697238555644
aF3.2332991053408477
aF1.629465202713618
aF1.1067419302708004
aF1.6208268505579326
aF2.481405584985623
aF0.8119578090554569
aF0.6326337707287166
aF2.2565538612252567
aF1.4847506758815143
aF0.7752968919521663
aF1.430795769119868
aF3.329247998917708
aF0.7365207922703121
aF2.426639198238263
aF2.2213625711447094
aF0.4962854775658343
aF1.8441122573858593
aF2.650009746575961
aF1.8133742352074478
aF1.9387114969140384
aF1.7777436402684543
aF1.8608794909960125
aF0.7007709135359619
aF0.8557159257179592
aF2.1560978320485447
aF2.6631891158467624
aF1.870973751792917
aF2.3534917262441013
aF3.7113672110717744
aF3.255681748414645
aF1.9118856442219112
aF3.3954337042814586
aF1.8418138277775142
aF1.3019200963026378
aF4.003482404077658
aF1.5414652776962612
aF1.6238087964302395
aF4.127659852529177
aF1.8699502748495433
aF1.9609943580871914
aF1.6858263117319439
aF3.606389592314372
aF2.4613711413985584
aF2.495443279767642
aF3.553952331567416
aF2.298583070660243
aF2.6469154832011554
aF3.7966432971006725
aF2.4219352555519436
aF1.3120520663505886
aF2.814247700298438
aF2.955729839304695
aF4.044704566622386
aF3.2539287013059948
aF3.35611646893085
aF2.7336167720204685
aF2.297049182379851
aF1.5122215253359172
aF4.1569298681861255
aF2.852974384004483
aF3.7447435584908817
aF1.3669429150468204
aF3.9294167411571834
aF3.19081516834558
aF2.276849876070628
aF2.1329949599748943
aF2.367159481073031
aF1.9518345867982134
aF0.9548025939147919
aF2.8438390594965313
aF2.5536282164102886
aF3.2107685309892986
aF4.950260816985974
aF2.607951368117938
aF4.6009377007430885
aF5.049609820271144
aF3.8884941664582584
aF3.547000828111777
aF4.369431788945803
aF3.497520926321158
aF2.3681716051942203
aF4.978604855859885
aF3.563199635973433
aF5.089375357056269
aF3.355365152383456
aF4.436445626342902
aF2.3185387057310436
aF1.3884024870640133
aF3.5248863966262434
aF2.396081740880618
aF3.069249353284249
aF4.615146870637545
aF1.220912280405173
aF5.437552983785281
aF1.9065353636688087
aF4.779657180333743
aF4.375247861171374
aF1.58308699625195
aF3.4383812350279186
aF5.515138204355026
aF6.657872613432119
aF4.49520309237414
aF3.9900281083828304
aF1.6872011673694942
aF2.004129270935664
aF4.354212953621754
aF2.425278889859328
aF2.3959813070541713
aF1.8238915677648038
aF4.487731551198522
aF7.648369443049887
aF2.8522547137981746
aF6.796609739685664
aF5.691653917456279
aF7.360943983221659
aF5.313889029348502
aF5.313889029348502
aF0.3173237480223179
aF6.712577503785724
aF4.674381147051463
aF4.76707890527905
aF4.081941823387751
aF5.634060240263352
aF5.87298164042295
aF3.794489334250102
aF4.680632295930991
aF5.925562026823172
aF3.8197134983784053
aF5.261987688863883
aF5.1924591687566135
aF6.948628135869512
aF4.854651651257882
aF7.822273242200026
aF6.484630088234553
aF5.64254232114763
aF5.379830113524804
aF3.9257696074491832
aF7.931880859105149
aF7.137383482331643
aF3.3564054024463985
aF4.790956041688332
aF5.595077847974608
aF6.135159823024878
aF6.549421789968619
aF7.525266016746173
aF4.3294456032163
aF4.363384804601083
aF6.046623679721961
aF6.232146265829215
aF3.770144934533164
aF5.300398523831973
aF7.574437837029109
aF8.92262881519855
aF9.596864133054623
aF3.73499413850368
aF4.603546987200389
aF7.496344157407293
aF7.960124182427535
aF10.151299815188395
aF7.564035112882266
aF7.0587484528368805
aF7.23297236385406
aF7.997994738543639
aF10.4719413620478
aF7.1317688179260585
aF9.207758567208657
aF8.221070802683244
aF9.06019830974401
aF8.324985447252402
aF10.320914870972047
aF9.45580197396339
aF3.978475536132464
aF9.670755927363643
aF10.563361352687934
aF8.119565908709774
aF5.1117282164341304
aF8.34708364578546
aF7.725791464472422
aF9.644960182631621
aF9.810364813456545
aF7.057685281906743
aF9.386903735721717
aF10.357396564359078
aF5.425351093435893
aF4.380127469921717
aI0
aF6.246136221016059
aF7.8543974448984955
aF7.922701666975627
aF9.658506558189401
aF6.963746043620631
aF6.963746043620631
aF6.157158872956643
aF9.882461092347512
aF6.371347623789916
aF6.77278263392509
aF6.990458498621592
aF6.311280894005904
aF10.14345750110806
aF11.888275275850901
aF12.332875289866934
aF6.159705202007899
aF8.531464542174945
aF0.5360040244704578
aF7.489568422461161
aF10.195661763573298
aF5.27453780072392
aF7.675232755864272
aF6.330669279122958
aF10.10328302058042
aF11.209485928702634
aF7.792578636581311
aF3.1087939617282245
aF11.678647863591323
aF8.534674978727708
aF7.107253334397683
aF2.9307245266682003
aF6.7713883229589555
aF8.608446250582347
aF7.349556702101836
aF10.359902036288986
aF-1.1009928035491612
aF8.149067609483609
aF7.687665744597325
aF9.613538849080214
aF11.398231497878442
aF11.579322217876324
aF10.472201554948697
aF7.508469381282339
aF6.674997563386569
aF11.792615781450877
aF8.233057017205283
aF11.879759150469908
aF5.293742603535065
aF10.233960308978567
aF11.569890576793114
aF12.11410058560432
aF8.011306355620036
aF10.419628619129071
aF11.392544297414133
aF11.801969314838061
aF5.234503689134726
aF6.508623267436633
aF10.66849615323008
aF7.214872556651244
aF7.522082905197749
aF4.456055666232714
aF9.734204391861567
aF1.4320832294470165
aF1.4320832294470165
aF7.494991682469845
aF9.088494450697908
aF11.113895381713519
aF8.973762894893298
aF11.088967285031686
aF6.439075450325618
aF11.40129146995605
aF10.833553652191767
aF11.701187639409909
aF7.318465280259261
aF11.471196062775562
aF11.39080366017879
aF13.053256570274243
aF9.830584878945956
aF12.831436115229735
aF10.56011284039414
aF8.808427992189536
aF10.460365469480166
aF10.144848654890666
aF9.913248418743024
aF11.35880663889111
aF6.83769283714355
aF10.167302115587518
aF12.137855457986007
aF8.102904166007647
aF11.12460400807322
aF12.851228214713046
aF11.722315697843442
aF9.309201220894465
aF9.55643610926927
aF12.750825005496154
aF9.662671751721064
aF12.26961942287744
aF9.063091221178183
aF11.838872413063655
aF12.595328389579663
aF12.954691554332385
aF13.2017162432021
aF5.684268119657645
aF4.80430492098094
aF11.940424161875853
aF11.487075257027755
aF5.3922112462169025
aF9.241378213191638
aF9.06454129042686
aF13.179528470063815
aF12.499901222909102
aF10.467795411968837
aF12.053473423147807
aF12.632338608527789
aF2.7627632570511196
aF9.295055325055728
aF8.825376498425612
aF12.02059447663487
aF9.115636776114115
aF14.138109105551848
aF11.790179590607295
aF12.74885186823667
aF11.616395375604043
aF6.43027493628324
aF10.034512336278567
aF12.543107549572596
aF9.80895776185207
aF8.834708025096916
aF13.072612536052475
aF13.9608277323714
aF10.639815832400927
aF11.516859586263308
aF1.281133833253989
aF13.147352467203746
aF12.338169719005236
aF12.195156867528567
aF10.813727433705935
aF11.95645777406753
aF5.92702085050405
aF5.92702085050405
aF3.2059090957045555
aF12.112481648946414
aF10.208764280105243
aF11.069833318615565
aF11.050094930833438
aF13.735872263932833
aF11.867348420346389
a.