(lp0
F0.583259254693985
aF0.41520528495311737
aF0.500098705291748
aF0.5159178078174591
aF0.6274026930332184
aF0.6069064438343048
aF0.7956551611423492
aF0.5051348507404327
aF0.5886472761631012
aF0.3991532325744629
aF0.6142580509185791
aF0.6835763454437256
aF0.50232994556427
aF0.6312386393547058
aF0.5921377241611481
aF0.4614069163799286
aF0.47112467885017395
aF0.5598362982273102
aF0.44264595210552216
aF0.5277827978134155
aF1.2213198244571686
aF1.5529682338237762
aF1.4538669288158417
aF1.6250341832637787
aF1.5901680886745453
aF1.5506348311901093
aF1.5134476125240326
aF1.5291491448879242
aF1.574162095785141
aF1.5335520207881927
aF1.3879746496677399
aF1.514767974615097
aF1.5765888392925262
aF1.378089040517807
aF1.5764906108379364
aF1.396657556295395
aF1.539403885602951
aF1.5106087625026703
aF1.4363883435726166
aF1.4869930446147919
aF1.5561707317829132
aF1.6083460748195648
aF1.6188025176525116
aF1.5475293099880219
aF1.5754900872707367
aF1.5823591649532318
aF1.7809254825115204
aF1.5822161138057709
aF1.6404424607753754
aF1.5821395814418793
aF1.5051292479038239
aF1.5961624085903168
aF1.6619538962841034
aF1.6803575456142426
aF1.6290542781352997
aF1.6446419656276703
aF1.7182229459285736
aF1.6356798112392426
aF1.5810963809490204
aF1.4982548654079437
aF1.5163287222385406
aF1.6831963956356049
aF1.6177135407924652
aF1.6441527307033539
aF1.6326528489589691
aF1.6828477084636688
aF1.7034705579280853
aF1.611177533864975
aF1.8329320847988129
aF1.555546134710312
aF1.5756531059741974
aF1.5362477004528046
aF1.6785295903682709
aF1.6799919307231903
aF1.847960203886032
aF1.7510084807872772
aF1.689568966627121
aF1.5683136880397797
aF1.7491513192653656
aF1.528540700674057
aF1.6305079758167267
aF1.5751963555812836
aF1.5906551778316498
aF1.6201939284801483
aF1.6474998891353607
aF1.588244765996933
aF1.570411056280136
aF1.455657571554184
aF1.6444757878780365
aF1.6869346797466278
aF1.3691984713077545
aF1.6583519876003265
aF1.676975578069687
aF1.6693576276302338
aF1.743315190076828
aF1.4430132806301117
aF1.5656757056713104
aF1.6085667312145233
aF1.7161230742931366
aF1.487161248922348
aF1.7091453969478607
aF1.5131944715976715
aF1.7112502753734589
aF1.6216225326061249
aF1.5568358600139618
aF1.6010657250881195
aF1.511201947927475
aF1.557984083890915
aF1.728102058172226
aF1.6444110572338104
aF1.6106341779232025
aF1.3919128477573395
aF1.584936112165451
aF1.497985452413559
aF1.6470814645290375
aF1.6225349605083466
aF1.5522334277629852
aF1.5791513621807098
aF1.654250830411911
aF1.4754372537136078
aF1.6181010901927948
aF1.527397781610489
aF1.6158626973628998
aF1.5925703942775726
aF1.609618753194809
aF1.6923786103725433
aF1.6395196616649628
aF1.6250759065151215
aF1.6813536584377289
aF1.603544920682907
aF1.5650101602077484
aF1.4682133495807648
aF1.5057538449764252
aF1.5573972165584564
aF1.6765606105327606
aF1.6639748513698578
aF1.5455852448940277
aF1.7811356484889984
aF1.603077620267868
aF1.80782350897789
aF1.649863213300705
aF1.596327692270279
aF1.5508666932582855
aF1.4911732375621796
aF1.5475383698940277
aF1.5156783759593964
aF1.533081978559494
aF1.5952115952968597
aF1.719940036535263
aF1.566159337759018
aF1.520704835653305
aF1.5457686483860016
aF1.4414887130260468
aF1.6512828767299652
aF1.552433580160141
aF1.79205521941185
aF1.559488981962204
aF1.5800473392009735
aF1.6844155490398407
aF1.4206577241420746
aF1.587576001882553
aF1.4660606682300568
aF1.7004586160182953
aF1.6757265031337738
aF1.5771503150463104
aF1.662938803434372
aF1.5169773995876312
aF1.601572722196579
aF1.5707065761089325
aF1.6374493539333344
aF1.449539989233017
aF1.453639656305313
aF1.6466237008571625
aF1.5117340981960297
aF1.5927508771419525
aF1.6441768109798431
aF1.6194500625133514
aF1.559471219778061
aF1.3719843327999115
aF1.5133298337459564
aF1.6029439866542816
aF1.2967599928379059
aF1.5641725957393646
aF1.491131991147995
aF1.5594378411769867
aF1.624636024236679
aF1.6206608712673187
aF1.4245582520961761
aF1.3840743005275726
aF1.5974399745464325
aF1.4710541665554047
aF1.4670386612415314
aF1.6847463548183441
aF1.5397305190563202
aF1.5285434424877167
aF1.384159415960312
aF1.446813553571701
aF1.6874808967113495
aF1.4165608584880829
aF1.5526693761348724
aF1.5518824756145477
aF1.4720126688480377
aF1.6547288596630096
aF1.5064052045345306
aF1.5255609452724457
aF1.584936112165451
aF1.2476607263088226
aF1.5498304069042206
aF1.536560982465744
aF1.5685372054576874
aF1.5987381637096405
aF1.4079239666461945
aF1.4968683421611786
aF1.505592793226242
aF1.621423214673996
aF1.4944376647472382
aF1.813640683889389
aF1.6244326531887054
aF1.5693055093288422
aF1.5487605035305023
aF1.5692146718502045
aF1.714147001504898
aF1.5202452838420868
aF1.550874799489975
aF1.3859414756298065
aF1.6744247376918793
aF1.4497838914394379
aF1.279757708311081
aF1.500135987997055
aF1.635868638753891
aF1.6301307380199432
aF1.6752435266971588
aF1.5681221187114716
aF1.5831162631511688
aF1.543863981962204
aF1.6542125642299652
aF1.6332803666591644
aF1.5305306613445282
aF1.4235969483852386
aF1.2647665441036224
aF1.5848036706447601
aF1.5085680782794952
aF1.5104359090328217
aF1.5766015946865082
aF1.389068454504013
aF1.6788625419139862
aF1.632135957479477
aF1.5969897210597992
aF1.6505198180675507
aF1.7052112519741058
aF1.6812460124492645
aF1.5250462591648102
aF1.5528044402599335
aF1.4352409541606903
aF1.373002141714096
aF1.5845800340175629
aF1.340200513601303
aF1.4932701289653778
aF1.5165054500102997
aF1.6406725347042084
aF1.6771069467067719
aF1.470306783914566
aF1.632853478193283
aF1.502208560705185
aF1.4962821900844574
aF1.5079298913478851
aF1.4956890046596527
aF1.3911270797252655
aF1.601687878370285
aF1.6525313556194305
aF1.4996406733989716
aF1.5202390253543854
aF1.473226636648178
aF1.5468097627162933
aF1.6789508759975433
aF1.4482146203517914
aF1.640178769826889
aF1.6448107659816742
aF1.5627494752407074
aF1.535256713628769
aF1.5109077394008636
aF1.407502919435501
aF1.5101809203624725
aF1.5606631934642792
aF1.4617243707180023
aF1.4177423417568207
aF1.583693951368332
aF1.6930738389492035
aF1.685483068227768
aF1.7563380897045135
aF1.5892580449581146
aF1.4590956270694733
aF1.6517684161663055
aF1.367945283651352
aF1.7355436980724335
aF1.4815532863140106
aF1.4285851418972015
aF1.391661137342453
aF1.507406324148178
aF1.5613056123256683
a.