(lp0
F0.05109634505060967
aF-0.5895506337401457
aF-0.05873987887753174
aF-0.08447045023785904
aF0.195585579785984
aF0.09303701081080362
aF-0.282637013879139
aF-0.25378731108503416
aF-0.12809863925212994
aF-0.3390258763101883
aF-0.22738490981282666
aF0.07032211608020589
aF0.05689497775165364
aF0.10997783596394584
aF-0.13785160874249414
aF-0.0484638407942839
aF0.3907458085450344
aF0.22336895315675065
aF-0.07635812071384862
aF0.3102254049736075
aF0.13986913225380704
aF0.09188844094751403
aF-0.07417447428451851
aF0.23003868031082675
aF-0.10860142094315961
aF-0.08535641507478431
aF0.21192475192947313
aF-0.18905881355749443
aF-0.123135955655016
aF-0.251087604847271
aF0.1268276313203387
aF-0.07291863934369758
aF-0.08902374218450859
aF-0.24746340030105785
aF0.2810428405064158
aF0.26740424073068425
aF-0.18193756666732952
aF-0.02628362999530509
aF0.17237066029338166
aF0.16638523404253647
aF0.29727892579103354
aF0.5760840812581591
aF0.010597060609143227
aF0.16476261167554185
aF0.19180553921614774
aF0.18937336950330064
aF0.5420500200125389
aF0.20364188676467165
aF0.3151030439767055
aF0.3973574817064218
aF0.6778336290153675
aF0.7229996458045207
aF0.48896708263782784
aF-0.09334498347016051
aF0.5143648679950275
aF0.6133599273744039
aF0.30252230091718957
aF0.535834565962432
aF0.19646301137981936
aF0.6611522447201423
aF0.21612952201394364
aF0.06129241286544129
aF0.19322656764416024
aF0.5697641355800442
aF0.7961374029400758
aF0.30635619739769027
aF0.06562633643625304
aF0.25498560367850587
aF0.309971978131216
aF0.2072476941975765
aF0.6248432464781217
aF0.5649137889849953
aF0.4343263918417506
aF0.39604218414751813
aF0.2289675801876001
aF0.34506798459915444
aF0.2740964919212274
aF0.04364465567050502
aF0.6723118035006337
aF0.685725296207238
aF1.4051629442110425
aF1.3363164776819758
aF0.8718401493388228
aF1.4882046144339256
aF0.993952608841937
aF0.5751496620359831
aF1.068753550935071
aF1.0629231549683027
aF1.6146229460719042
aF1.2424178488436155
aF0.362755942333024
aF0.8966550391050987
aF0.9180055695469491
aF1.2912872034939937
aF0.39383656083373353
aF0.5986425720038824
aF1.1942009508493356
aF1.134725964802783
aF1.1543292991700582
aF0.1567814193549566
aF1.1146878145518713
aF1.5695192918065004
aF2.2864247739198618
aF1.7019838296982925
aF2.856460648763459
aF1.9774273477378301
aF1.0049490697565489
aF0.8620891321334057
aF1.0523955218377523
aF1.523252154875081
aF1.175296108413022
aF1.2388717077556066
aF0.20970963611034676
aF0.4994073577108793
aF0.659028428781312
aF1.10599660751177
aF0.9442690892319661
aF1.130277688789647
aF1.5889900430920534
aF1.4946354433777742
aF1.6978211586683756
aF3.299992743122857
aF0.2398991837981157
aF2.9003734767320566
aF0.7579314403119497
aF2.8222272798302583
aF0.14971093012718484
aF3.0212769118952565
aF1.9781922243419103
aF1.0252919487538747
aF1.052146895963233
aF2.497245982813183
aF2.8009397789719515
aF0.048127367335837334
aF2.040058828133624
aF2.87424545007525
aF1.2865854121628217
aF1.7009218616294675
aF2.5719882428529672
aF1.6188767619314604
aF1.9643068753066473
aF0.9941841356339864
aF2.7191971681895666
aF0.11777189298300073
aF0.6089014999452047
aF0.2757737479987554
aF0.26536090968875214
aF0.7636873863521032
aF2.192915163177531
aF1.233893639582675
aF1.9596236266079359
aF0.9827009841683321
aF0.9543734110775404
aF1.1679607510450296
aF1.6345487974467687
aF0.3391944683971815
aF1.1743102662148885
aF0.9346419453504495
aF0.8876003764453344
aF0.2911151640000753
aF1.137891423641122
aF2.6588307015481405
aF1.57317752687959
aF1.9217396780732088
aF1.7595973491552286
aF2.3035329647245817
aF1.3864996351185255
aF1.671568758029025
aF3.618591974664014
aF1.0744509167852812
aF2.297247356909793
aF2.9618747413042
aF4.3965087897959165
aF2.352079047996085
aF2.5800653800251894
aF2.3724199339631014
aF2.582297862682026
aF3.2705462045851164
aF1.5100908718886785
aF3.650533060717862
aF0.6637723624589853
aF3.1504959307494573
aF1.735054931777995
aF2.3862884819391184
aF1.2161169640603475
aF2.610226541000884
aF1.6106666318955831
aF3.122083439666312
aF2.1592284805956297
aF1.1806099928799085
aF0.8787272564950399
aF2.7623337946715765
aF1.6205117732170038
aF1.2382108040037565
aF4.135146296757739
aF0.9950714625301771
aF1.5026148848119192
aF2.356481391179841
aF0.8835204012575559
aF4.527910380566027
aF4.222107476307428
aF4.227042353886645
aF2.6515885881963186
aF1.3482661612215452
aF4.341708521533292
aF3.755571178335231
aF3.1041115496191196
aF3.2130087233963422
aF4.5585686500999145
aF2.228084027010482
aF3.3127595923724584
aF4.913690020039212
aF2.1445969186606817
aF0.44061362743377686
aF1.2955532476189546
aF6.4510539241018705
aF4.5410807357984595
aF3.08065951539902
aF1.1727673627319746
aF3.9411062069120817
aF3.703572160738986
aF3.5457114104065113
aF3.767207327473443
aF3.426247670606699
aF1.3263184644165449
aF5.085920623678248
aF4.593322451401036
aF3.4710850261035375
aF5.265195953834336
aF2.9801373250666074
aF5.0649770043673925
aF3.353225260216277
aF4.065005860466044
aF3.821511633868795
aF3.2352913237991743
aF3.486255786556285
aF2.1708160333218984
aF5.323561762634199
aF3.688048876065295
aF1.2499678760650568
aF2.6724971390649443
aF6.255422744143289
aF5.1072414658847265
aF3.143378726381343
aF4.71167284733383
aF2.832236389804166
aF4.451285234827083
aF1.44367278291611
aF2.364180355507415
aF1.3676738247158937
aF5.0035157121601515
aF1.9262219473603182
aF3.6362361974897794
aF6.45849072112469
aF5.184076025325339
aF4.445561475295108
aF7.940120964485686
aF3.6826108090463094
aF6.273685665510129
aF5.874900601047557
aF0.699581510561984
aF1.9533337905886583
aI0
aF0.0
aI0
aI0
aF3.2918057895221864
aF4.540107508364599
aF4.7456953741493635
aF2.301424822944682
aF2.206823310989421
aF3.8159539803746156
aF6.2913695044699125
aF7.5096385620418005
aF1.1205997384968214
aF3.3151115544023924
aF2.354915744799655
aF4.682772780943196
aF3.2070321842911653
aF3.78020466043381
aF1.132144003349822
aF2.4541088260593824
aF0.24400965048698708
aF6.733995217073243
aF5.65100482384878
aF2.9471893815207295
aF7.179571881133597
aF6.115098136651795
aF7.763869675982278
aF8.728170289832633
aF7.318751408893149
aF5.205475135880988
aF1.2876815788331442
aF5.769447933125775
aF7.84558142273454
aF4.1456803001347
aF3.253750584262889
aF6.8188336488674395
aF6.2503283165278845
aF4.318064532417338
aF6.671952164906543
aF1.6618603162351064
aF6.379388763743918
aF5.924021757382434
aF7.437249435752165
aF1.729891381401103
aF5.626556917268317
aF2.2221041723969392
aF5.529078102845233
aF6.2571449458482675
aF3.0968808635952882
aF3.0053430490079336
aF7.301684494304936
aF4.410271632659715
aF3.712973973888438
aF7.868119280028623
aF5.559545017022174
aF7.251549816865008
aF5.576883635658305
aF4.44001716299681
aF6.777665211993735
aF4.165817636239808
aF5.1560645989957266
aF4.835852801043075
aF4.529699956692639
aF6.496682937431615
aF7.675500029872637
aF7.138950475200545
aF8.013645100581925
aF3.2452984966221265
aF8.933633386332076
aF5.807808197278064
aF6.403695463377517
aF1.0197985425475053
aF5.510268609214108
aF6.364741425204556
aF9.019444092118647
aF9.704587671149056
aF6.477978832263034
aF4.77561440988211
aF6.612357801932376
aF8.992723810661118
aF4.813446968037169
aF6.460350795823615
aF7.766122852626722
aF6.34610253124265
aF5.828271496284287
aF7.9843998767319135
aF8.731496415275615
aF6.415622450585943
aF7.2249820522847585
aF8.538573521364015
aF7.518037005502265
aF7.179417691368144
aF5.841217531997245
aF7.789080745715182
aF7.598389226186555
aF8.251150126743596
aF9.005285191524308
aF7.800727735448163
aF5.563572428363841
aF8.27585805876879
aF8.12635400070576
aF6.686929120623972
aF3.189863872466958
aF7.597064530818898
aF8.271080923441332
aF5.180053065705579
aF8.960973199864384
aF7.358474998909514
aF7.358474998909514
aF7.6655349947395734
aF7.400395914155524
aF7.993180385965388
aF7.762735637079459
aF7.838337428111117
aF8.642779129731935
aF8.025701648730319
aF6.0022910285624675
aF7.261866579938214
aF8.15588734782068
aF5.705376059922855
aF9.71660870796768
aF7.704265040520113
aF7.735741815704387
aF7.267800846311729
aI0
aF0.4784030560404062
aF7.5111917065805756
aF9.024518679070752
aF8.801368304702919
aF7.84191881044535
aF8.766699378320482
aF6.925826191145461
aF10.017175695102196
aF7.7013893678667955
aF6.335262327629607
aF7.335435028362554
aF8.38047116267262
aF7.611826008360367
aF7.9589831896009855
aF3.7716508723679
aF6.743864796299022
aF9.268910065002274
aF9.01951375461067
aF9.824115417141002
aF8.260495190261281
aF8.112927160400432
aF9.349732633854728
aF6.9941351244051475
aF9.262453696865123
aF7.429462193686049
aF8.572185455996078
aF9.249003741133492
aF8.518223061400931
aF6.615213795739692
aF7.060989930469077
aF9.078457352879923
aF9.746626789856236
aF5.763806092727464
aF10.364204223442357
aF8.945639028388541
aF9.090310993778985
aF9.035187835979741
aF9.613196800637525
aF8.351114212709945
aF8.601593679923099
aF9.615617084491532
aF8.948229930538218
aF9.155823893088382
aF9.827688063669484
aI0
aF-2.0580539852380753
aF9.072790245700162
aF8.708898152399343
aF5.877157903451007
aF8.909793577331584
aF7.37873811944155
aF6.663206314842682
aF8.571969351905864
aF6.797739907342475
aF9.403212440374773
aF5.827620600757655
aF9.680715996946674
aF9.185039351868909
aF9.364954230550211
aF8.867974045861047
aF4.65787315297348
aF9.921276408422273
aF9.80533503665356
aF8.760661079722922
aF8.184552385646384
aF9.425981936219614
aF8.516099524858873
aF10.2152109585586
aF9.408847100276034
aF8.315726823348086
aF10.270430061209481
aF8.792577020067256
aF9.934955637145322
aF9.530147963378113
aF8.691766156989615
aF8.826375461358111
aF8.898929215210956
aF9.591149508196395
aF9.286648470151704
aF9.771271241770592
aF7.693295578646939
aF9.385811041283887
aF9.072125393140595
aF10.200256898242515
aF10.3286556826788
aF10.112997048709076
aF8.828009429562371
aF9.90641924290685
aF9.078412472445052
aF9.19024745671777
aF9.269516814674716
aF10.384008574474137
aF6.695116299379151
aF9.205448392021935
aF9.26166972873034
aF6.968411809939425
aF0.677897110581398
aF8.212179362017196
aF8.886396481830161
aF9.166170402604621
aF8.10759849169699
aF9.873292210686486
aF7.505783259111922
aF9.836768719542306
aF9.664521168160718
aF8.462823747831862
aF8.947566231654491
aF9.830874195031356
aF8.47294107748894
aF7.530882243590895
aF9.629669745627325
aF9.083566690969747
aF8.726672276097815
aF9.855164370674174
aF7.961340180772822
aF10.590946084994357
aF10.011452769103926
aF9.688646986323874
aF10.337554670113605
aF10.252366072672885
aF9.598655968147796
aF9.359409792523365
aF10.343330932955723
aF9.672022822487634
aF8.886859721678775
aF9.594013008463662
aF9.931264854967594
aF9.001013037923258
aF9.51276932581095
aF10.009957670408767
aF10.013323339808267
aF9.151125352072995
aF8.166458613413852
aF8.581783871341031
aF9.429153173405211
aF10.017735368746798
aF6.960607184737455
aF8.52280473074643
aF9.093375398952048
aF10.554624066862743
aF8.331622092737234
aF9.647138088184875
aF8.426046899694484
aF10.416207692760509
aF10.231970322492998
aF10.40695201343624
aF7.519544742244761
aF2.766618225723505
aF10.339572840894107
aF8.383119224745315
aF9.580642718065064
aF9.716285548347514
aF8.98690876289038
aF8.867677286907565
aF9.964994534093421
aF8.816075406211894
aF10.807669579226058
aF8.74138031824259
aF10.259878269571345
aF10.116198823961895
aF9.006763591605704
aF10.929346221673768
aF9.164008393127006
aF8.326110231864732
aF9.114054876554292
aF9.939719892281573
aF9.679604458797257
aF9.614301516849082
aF11.034190074715298
aF10.593199694703799
aF9.750569357711356
aF9.934759724128526
aF10.364839031535666
aF9.974421343940776
aF7.134988314646762
aF8.995510867971461
aF9.353661292407196
aF6.99421208089916
aF8.99482728651492
aF9.805124744016211
aF5.853066394847701
aF8.255515943455976
aF10.293749998963904
aF10.900212028936949
aF10.004406820225995
aF9.592643829237204
aF10.955371583986562
aF10.677711076277774
aF9.434682547289412
aF9.428448413673323
aF10.673389869916718
aF10.54049250407843
aF10.639991842617746
aF10.405228442687076
aF10.28610491863219
aF9.718445248145144
aF10.405160381633323
aF10.450019787240308
aF9.603599479596596
aF10.685378452471923
aF4.581630534667056
aF9.058777612808626
aF7.024691595870536
aF9.98616791999666
aF9.780460844922345
aF10.136030974972527
aF10.41955978347687
aF8.59704552887706
aF9.835220097738784
aF9.987136877316516
aF10.00434165558545
aF10.618900067347568
aF10.287097680557054
aF10.074258718814235
aF7.544451269495767
aF9.599180358636659
aF9.46245238854317
aF10.723067212093156
aF10.193225766706746
aF10.061530403036159
aF7.070807209020131
aF10.512555220338982
aF10.375547248113435
aF10.417097105819266
aF9.93350434320746
aF9.62589579372434
aF10.289846181112807
aF10.192068598407786
aF9.903680241841357
aF9.866011391568463
aF9.813720255333465
aF10.518099998298567
aF10.209707512694877
aF10.681791982788127
aF5.887770380068105
aF5.887770380068105
aF8.027145105588716
aF10.5606212533894
aF8.041954829532187
aF8.060593704867642
aF10.825485686946195
aF10.320010126743
aF9.109691388148349
aF10.300508688378613
aF10.843176978814881
aF9.71208068280248
aF11.004779010254424
aF10.698300383228343
aF10.1700220091152
aF9.981101692828815
aF10.303608297544997
aF10.277330677199643
aF8.955720334488433
aF9.171301058668178
aF9.768030296254437
aF10.636461551475804
aF10.647576504561584
aF9.173065877694171
aF9.160563319164794
aF-0.8506100112572312
aF10.034429419029038
aF6.006600132895983
aF8.875886571768206
aF10.675493438902777
aF9.291265427309554
aF10.00263948662905
aF9.650512428197544
aF6.411767981189769
aF6.683592858898919
aF10.01534827722935
aF9.854324969637673
aF9.620113901037257
aF9.692236247647088
aF9.382082156080287
aF11.085423545155209
aF10.06997572927503
aF9.664436361927073
aF10.792589022021275
aF9.391583620745223
aF10.049458506691735
aF9.649658433336299
aF10.124034180480521
aF6.938238430011552
aF8.782327703374904
aF9.32465272693662
aF9.711367857817095
aF10.27886363415746
aF8.992374024528544
aF9.722909766423982
aF10.696480467158835
aF10.299022688705008
aF9.809307080868166
aF10.56260261189891
aF10.56260261189891
aI0
aI0
aF6.345415159303229
aF10.015579953033011
aF10.490568650129717
aF10.05855555384187
aF10.728837873029988
aF9.672294601041358
aF10.517457441601437
aF10.374398331332486
aF8.97457131439296
aF10.053240481938701
aF8.35692473425297
aF10.0575979493442
aF10.58330486266641
aF9.815491742629092
aF9.67123818321852
aF7.607176142919343
aF1.069247368723154
aF10.678539306099992
aF10.154696188110393
aF9.969652450818103
aF9.849790928128641
aF9.267244029033463
aF10.341927658009809
aF9.705656699079555
aF7.238497405487578
aF10.132641091186088
aF8.194739112514071
aF10.230895157146733
aF10.5173873968306
aF10.093000696215313
aF10.029701429593842
aF10.322305771696847
aF10.89653308474226
aF10.114920108753722
aF10.130610081541818
aF10.457367661583703
aF10.001031260180753
aF10.363768289971631
aF8.467604655015748
aF8.826089596550446
aF10.84191781206755
aF10.622803053993266
aF11.145584552723449
aF10.708926531660836
aF9.583780734974425
aF10.228631819773
aF10.035250528890174
aF7.495022897783201
aF7.752849247990525
aF10.083852407697123
aF10.848743866372388
aF10.450777269143146
aF10.093911455187481
aF9.45991843676893
aF9.993001769471448
aF10.261932469147723
aF10.518824893224519
aF10.595401673053857
aF10.014789930719417
aF10.03028067498235
aF10.745548770937603
aF10.594962108589243
aF10.490922468889039
aF9.808874565351289
aF9.403095000598114
aF9.825823218852747
aF9.825823218852747
aF0.8997403777902946
aF9.944158985454123
aF10.608842305082362
aF10.624205066997092
aF7.890639339748304
aF10.250949177134316
aF10.418762347835582
aF10.156186043459456
aF10.547662104654592
aF10.575270557019394
aF9.883025202143472
aF9.613564915198367
a.