(lp0
F-0.6460387470360729
aF-0.19102435850072652
aF-1.245031080325134
aF0.17552964098285884
aF-0.42559137858916074
aF-0.06219355680514127
aF0.30272067873738706
aF-0.6371473736362532
aF-0.2093393710674718
aF-0.7328312686877325
aF-0.6882583565311506
aF-0.09770430449862033
aF0.07466772280167788
aF-0.6081594183342531
aF-0.22227412380743772
aF-0.04065912507940084
aF-0.7376776851015165
aF-0.49867974885273725
aF0.587357968906872
aF-0.7070752169238403
aF-0.6927254266338423
aF0.20934353524353355
aF-0.4092701367335394
aF0.20689505443442613
aF-0.3530159342335537
aF0.08180031494703144
aF-0.4523962951498106
aF-0.0034649140434339643
aF0.11523397348355502
aF-0.013151497696526349
aF0.01633616386243375
aF0.09655383124481887
aF-1.0648099175887182
aF-0.20569725253153592
aF-0.19391542591620237
aF0.4222452425165102
aF-0.03929619037080556
aF-0.5818381189601496
aF-0.23361953266430646
aF0.01651316590141505
aF-0.4969000654455158
aF-0.3215820185141638
aF0.2185929025290534
aF-0.8423779375152662
aF-0.2374925307231024
aF-0.1825051597552374
aF0.1694334828061983
aF-0.2493083506124094
aF-0.21199344017077237
aF-0.1544583245413378
aF-0.21778129284939496
aF-0.27961680956650525
aF-0.4426101065473631
aF0.706944644334726
aF0.09207065857481211
aF0.0206815981073305
aF0.01377617649268359
aF-0.17492326500359923
aF-0.2351058117346838
aF0.49963033699896187
aF0.1297280540529755
aF0.07408696867059916
aF0.5725437932414934
aF0.29417799960356206
aF0.07584561302792281
aF0.18459651560988277
aF0.47026212967466563
aF0.1569962193025276
aF-0.11182008602190763
aF-0.2096749871270731
aF0.3333067776475218
aF0.6602630828274414
aF0.5731375812320039
aF1.019341584178619
aF0.11579597077798098
aF-0.025146736879833043
aF0.4340385616524145
aF0.0896920048398897
aF0.4557197104441002
aF-0.3587058588163927
aF0.05403018312790664
aF0.39085059601347893
aF-0.207164830644615
aF0.17501709691714495
aF0.4305298038525507
aF0.02505084208678454
aF-0.36343191110063344
aF0.1552351628561155
aF0.3652093157870695
aF-0.7560858904616907
aF0.09139168763795169
aF0.0062886596424505115
aF0.1277122989995405
aF0.43427770666312426
aF-0.049378465046174824
aF0.4118631052551791
aF0.2703490637941286
aF0.4552996688289568
aF0.4159627453191206
aF0.2724935085279867
aF0.436966065208253
aF0.38968226115684956
aF0.4493994888616726
aF0.5553456553025171
aF0.8420911832945421
aF0.15442302159499377
aF0.26046674873214215
aF0.1954778394429013
aF0.2077897422714159
aF0.4759834165452048
aF0.1312684243384865
aF0.27512781030964106
aF0.1371910813031718
aF0.778173161088489
aF0.8970160613534972
aF-0.22028120525646955
aF0.2238184929592535
aF0.37974476523231715
aF0.1813798927469179
aF0.3595112793846056
aF0.6044421227488783
aF0.2949137770337984
aF0.13357372081372887
aF-0.1863675779895857
aF0.3247743210522458
aF0.6825261600897647
aF0.2486721583409235
aF0.16503454826306552
aF0.16282165131997317
aF0.08005614101421088
aF0.22343200387695106
aF1.1905066965846345
aF0.7311436318559572
aF0.6898138363612816
aF0.2509367250604555
aF0.3026184596819803
aF1.2770218745572492
aF1.025071979383938
aF0.12287368706893176
aF0.4617977113230154
aF0.623645388877776
aF0.5698986974311993
aF0.23405549756716937
aF0.31693663157057017
aF0.7605685776798055
aF0.5309401982231066
aF1.063162197242491
aF0.47119166410993785
aF0.20738469145726413
aF0.6279880710644647
aF0.37139255309739383
aF0.9778661065502092
aF0.9055616440309677
aF0.4082199715776369
aF0.07508312992285937
aF0.21371259994339198
aF0.018623635987751186
aF0.3710659401258454
aF0.6434606079710647
aF0.2844520629150793
aF0.41449518630543025
aF0.5665220291120932
aF0.766919392044656
aF0.9488745377166197
aF0.8775398711441085
aF0.6174443539930508
aF0.6405208230717108
aF0.8437343471450731
aF1.0050667048199102
aF0.6026548071531579
aF0.26112131530680927
aF0.34222563437651843
aF0.7812109979568049
aF0.9707714905380271
aF1.1922257737023756
aF0.6536122754914686
aF0.6694349617464468
aF0.4407673765672371
aF0.7709817093564197
aF0.7524614600697532
aF0.311518290436652
aF0.6283959717256948
aF0.4417100519640371
aF0.6884471297962591
aF1.2105074495775625
aF0.8626816951436922
aF0.2739781670970842
aF0.9615535166813061
aF1.0534541838569567
aF1.0717308771563694
aF0.5456840222541359
aF0.9005889313993976
aF0.983247269759886
aF0.7213620346738026
aF0.8336380770197138
aF1.2658536684466526
aF0.7916299282805994
aF0.2405786671442911
aF1.2362682790262625
aF0.8687278226716444
aF1.0534917911354569
aF0.8501498814439401
aF0.7468148710904643
aF1.608443005825393
aF0.39026085927616805
aF0.9192017902387306
aF0.5664176092250273
aF0.7884057908086106
aF0.9542513050837442
aF1.2790058151585981
aF0.4668077243331936
aF0.4133481829194352
aF0.5084111233009025
aF0.33043922565411776
aF1.3525130652124062
aF0.6962582253618166
aF0.778388448889018
aF0.9371312503935769
aF0.5493753001792356
aF0.8451935107586905
aF0.7191588193018106
aF1.1609951563877985
aF0.79536369710695
aF0.43478686071466655
aF0.411038935999386
aF0.35801578022073954
aF0.8020940169808455
aF0.39195411081891507
aF0.46738917648326606
aF0.2063028299016878
aF0.32913852239289554
aF0.5077907227678224
aF0.21872413984965533
aF0.7702639437047765
aF0.41129288903903216
aF0.4834766191197559
aF0.30007112480234355
aF0.9103859186870977
aF0.7968961232108995
aF0.7880777859827504
aF0.44693538675346645
aF0.20695575221907347
aF0.12660989246796817
aF1.0137923032743856
aF0.39055864966940135
aF0.1928864576620981
aF0.6921290670288727
aF0.3319407411618158
aF0.6654291384620592
aF0.5415134219219908
aF0.4765769535515574
aF0.3581870935158804
aF1.3183666177792475
aF0.4299893946154043
aF0.7605458557372913
aF0.4799407970858738
aF0.7634859596146271
aF0.5864452727837488
aF0.671764753642492
aF1.0715780378086492
aF0.4272250247959164
aF0.39690317295026034
aF0.25584989867638797
aF0.6459860660834238
aF0.6370485172374174
aF0.5206669279141352
aF0.18734795681666583
aF0.7154495333088562
aF0.7229132083011791
aF1.2934762629447505
aF0.6146068846646813
aF1.0443530388874933
aF0.7087429863167927
aF0.6627073063282296
aF0.5618729226989672
aF1.3480597146553919
aF0.7186322350753471
aF0.21101191348861903
aF0.49845653295051306
aF0.41591850749682635
aF0.4687199717227486
aF0.3199956350727007
aF0.5868920934153721
aF0.924997657421045
aF0.4725110688013956
aF0.6577291683061048
aF0.5365782201988623
aF0.6094027095241472
aF0.5445713381050155
aF0.8825761609477922
aF0.966920812970784
aF0.3863256302429363
aF1.0682534676743671
aF1.255790737341158
aF0.2657812990946695
aF0.7675895158899948
aF0.3112273075385019
aF0.4248011641902849
aF0.992700855131261
aF1.0028110042912886
a.