(lp0
F-0.014104381203651428
aF0.03219930827617645
aF0.23545624315738678
aF0.12065021693706512
aF0.09936830401420593
aF0.06458640098571777
aF0.15776552632451057
aF-0.04838158190250397
aF0.01850306987762451
aF0.38202232122421265
aF0.021160468459129333
aF0.15895067155361176
aF0.2118274187669158
aF0.04744316637516022
aF0.21979354321956635
aF0.19222647929564118
aF0.1794145330786705
aF0.026943206787109375
aF-0.0041299015283584595
aF0.21207249723374844
aF0.04573357105255127
aF0.19720345363020897
aF0.07078403234481812
aF0.21119647286832333
aF-0.006379574537277222
aF0.07976719737052917
aF0.18318870849907398
aF0.01837557554244995
aF0.193434476852417
aF0.3875572234392166
aF0.1801360584795475
aF0.14986365288496017
aF0.01435728371143341
aF0.1753246784210205
aF0.013258695602416992
aF0.008030816912651062
aF0.16942445561289787
aF0.1337965726852417
aF0.19747024378739297
aF0.2554290294647217
aF0.15192750468850136
aF0.07149747014045715
aF0.17764647118747234
aF0.10015568882226944
aF0.2089671976864338
aF0.27606625854969025
aF0.13266414403915405
aF0.3091317266225815
aF0.14080775529146194
aF0.14845583960413933
aF0.25775154680013657
aF0.19776311563327909
aF0.2290574014186859
aF0.20665443688631058
aF0.1550523191690445
aF0.36911797523498535
aF0.10604879260063171
aF0.35234498977661133
aF0.1933392295613885
aF0.2045088429003954
aF0.13882507756352425
aF0.11723855137825012
aF0.1708099041134119
aF0.22464406862854958
aF0.11591152846813202
aF0.0034920573234558105
aF0.32671278715133667
aF0.104148730635643
aF0.17852640338242054
aF0.1182674765586853
aF0.1077839583158493
aF0.20934669859707355
aF0.16798238083720207
aF0.20114371413365006
aF0.45929041504859924
aF0.25097693875432014
aF0.24041911214590073
aF0.1268424615263939
aF0.3563776761293411
aF0.033076345920562744
aF0.3009457066655159
aF0.4393114596605301
aF0.1587534174323082
aF0.15618296712636948
aF0.47258803248405457
aF0.46975067257881165
aF0.17708401940762997
aF0.46471071243286133
aF0.3950043022632599
aF0.36028605699539185
aF0.41800880432128906
aF0.40685123205184937
aF0.24476873874664307
aF0.3021435886621475
aF0.2066389163956046
aF0.49432173371315
aF0.49756744503974915
aF0.2633400410413742
aF0.4013095647096634
aF0.17390136793255806
aF0.30594099313020706
aF0.22575030848383904
aF0.14246376231312752
aF0.1814877726137638
aF0.4432636797428131
aF0.20533110294491053
aF0.15265677124261856
aF0.4877384305000305
aF0.257230531424284
aF0.49776729941368103
aF0.4224861413240433
aF0.37547895312309265
aF0.1483950912952423
aF0.6188667416572571
aF0.5704335272312164
aF0.4123183488845825
aF0.2539795935153961
aF0.29968200623989105
aF0.3326740860939026
aF0.3514333963394165
aF0.5626740902662277
aF0.6076354682445526
aF0.5663231313228607
aF0.9112953245639801
aF0.19659654796123505
aF0.7766838371753693
aF0.7919009029865265
aF0.5702490508556366
aF0.8476362526416779
aF0.3999547213315964
aF0.47866949439048767
aF0.48223528265953064
aF0.5413823425769806
aF0.494476854801178
aF0.3443145900964737
aF0.3258602172136307
aF0.6926761567592621
aF0.46112045645713806
aF0.9047591984272003
aF0.7162335813045502
aF0.5363455414772034
aF0.7377553880214691
aF0.544328510761261
aF0.6543746888637543
aF0.45880359411239624
aF0.6397265493869781
aF0.7352805435657501
aF0.47307154536247253
aF0.890147477388382
aF0.4953194856643677
aF0.3684403896331787
aF0.4007589668035507
aF0.5268590450286865
aF0.4015050232410431
aF0.4887048304080963
aF0.2289517018944025
aF0.3807389736175537
aF0.3374444395303726
aF0.26555977761745453
aF0.5856874883174896
aF0.5091425329446793
aF1.059508055448532
aF0.8150303065776825
aF0.6809220016002655
aF0.6246843338012695
aF0.9112158119678497
aF0.6675165593624115
aF0.6114617884159088
aF0.8441872894763947
aF0.4870762526988983
aF0.5779547393321991
aF0.6726179122924805
aF1.011371225118637
aF0.7130687534809113
aF0.5131088495254517
aF0.9136572182178497
aF0.8693892061710358
aF0.7408452332019806
aF0.4038221687078476
aF0.5432601571083069
aF0.8500390946865082
aF0.4985181987285614
aF1.1386879980564117
aF0.6188925206661224
aF0.36729301512241364
aF0.9851742684841156
aF1.2731178104877472
aF0.6387675702571869
aF0.5914413332939148
aF0.90241339802742
aF0.4465447664260864
aF0.4676593244075775
aF0.5860387682914734
aF1.0828224122524261
aF0.21891510486602783
aF0.7556667029857635
aF0.8268968760967255
aF0.6490386128425598
aF0.5860469043254852
aF0.8682678043842316
aF1.256248340010643
aF0.6214809119701385
aF1.1312490403652191
aF1.7223069965839386
aF0.577671617269516
aF1.4770417511463165
aF0.9093902409076691
aF1.0370616018772125
aF0.7290750443935394
aF1.200697809457779
aF1.2072907984256744
aF1.098059207201004
aF1.2856813967227936
aF0.9786653816699982
aF1.1354744136333466
aF1.105826586484909
aF0.7840990126132965
aF1.0539357960224152
aF1.6301057636737823
aF1.3015157282352448
aF0.8040034472942352
aF1.2980296909809113
aF1.1170848906040192
aF1.058571606874466
aF1.3729946911334991
aF0.5434927046298981
aF1.2782308161258698
aF0.6464255750179291
aF0.9285511672496796
aF0.6113644540309906
aF0.3598938137292862
aF0.9694409668445587
aF1.0277381241321564
aF0.9236924946308136
aF1.0762818157672882
aF1.2726081907749176
aF0.5353257358074188
aF0.8866253197193146
aF0.469796746969223
aF1.0245842039585114
aF1.030614122748375
aF1.762735515832901
aF0.8566208779811859
aF1.1387576162815094
aF0.9857942759990692
aF1.3053570091724396
aF1.6117853224277496
aF1.023413211107254
aF0.9056265652179718
aF1.5400866568088531
aF2.090135842561722
aF1.2059151232242584
aF1.1898346245288849
aF1.5626087486743927
aF1.075135499238968
aF1.4243448078632355
aF1.168095976114273
aF1.1530196368694305
aF1.711132436990738
aF1.0919679701328278
aF1.0804045498371124
aF1.8367045223712921
aF1.4050451815128326
aF1.2289130985736847
aF0.8974649608135223
aF1.8569115698337555
aF1.671621948480606
aF1.661424309015274
aF1.519594818353653
aF1.5459873974323273
aF1.1081537306308746
aF1.4392477571964264
aF1.033059149980545
aF1.0222888886928558
aF1.5565400421619415
aF1.5587202608585358
aF1.2226184904575348
aF1.6440888941287994
aF1.7144857943058014
aF1.3335354626178741
aF0.8984986394643784
aF1.2899462282657623
aF1.671570211648941
aF1.614575058221817
aF1.723754197359085
aF1.3468202650547028
aF1.8365112841129303
aF1.515049010515213
aF1.8040074408054352
aF1.3160748779773712
aF1.1126997768878937
aF1.8977364599704742
aF1.6352688372135162
aF1.7067671120166779
aF1.9130912125110626
aF1.8822135031223297
aF1.8492720425128937
aF1.4859121143817902
aF0.7870881855487823
aF2.002394825220108
aF1.5535589754581451
aF1.2108758985996246
aF1.6627040207386017
aF1.669769436120987
aF1.3424574434757233
aF1.4676289856433868
aF1.363392025232315
aF1.4194832146167755
aF1.458938866853714
aF1.093911737203598
aF2.0566294491291046
aF1.6975690424442291
aF0.7175673544406891
aF1.7550622522830963
aF2.230823665857315
aF1.8428950607776642
aF1.4253617823123932
aF2.0057215988636017
aF1.5253011286258698
aF0.9807464778423309
aF1.133853241801262
aF2.1785766184329987
aF1.9307740032672882
aF2.2509776651859283
aF2.0817624628543854
aF1.64568629860878
aF1.8769629299640656
aF2.035936027765274
aF2.2279163897037506
aF1.7942363321781158
aF1.0302689373493195
aF2.0588314831256866
aF2.031944900751114
aF0.5560141801834106
aF1.8010319769382477
aF-0.026620984077453613
aF1.787177711725235
aF1.2750860750675201
aF1.8849425613880157
aF2.083544999361038
aF0.5927659571170807
aF1.6212150156497955
aF0.8469622433185577
aF1.876769334077835
aF2.1193105280399323
aF2.106331020593643
aF1.489246279001236
aF2.3953634798526764
aF1.7445960342884064
aF1.9329716265201569
aF1.6854527294635773
aF1.5126051008701324
aF2.0791145861148834
aF2.0552799999713898
aF1.8266368210315704
aF1.4425057470798492
aF2.042304903268814
aF1.3448896706104279
aF1.9799437820911407
aF2.4851588308811188
aF1.7020295709371567
aF1.494751125574112
aF2.0995631515979767
aF1.9519474804401398
aF2.0647439062595367
aF2.5184368193149567
aF1.967898279428482
aF2.458144575357437
aF2.167506128549576
aF1.975388079881668
aF2.302795320749283
aF2.5992330610752106
aF1.7721005976200104
aF2.232741266489029
aF2.0964358150959015
aF1.609504371881485
aF2.2035912573337555
aF2.547063022851944
aF1.906013399362564
aF2.0555568039417267
aF1.761500507593155
aF2.0725310146808624
aF2.430279165506363
aF1.602725774049759
aF2.328294426202774
aF2.4415229856967926
aF2.299379974603653
aF2.0583247244358063
aF1.8495924770832062
aF1.8632226288318634
aF1.6456619799137115
aF1.7624228298664093
aF2.3070997297763824
aF1.9364420473575592
aF2.423823744058609
aF2.3962670862674713
aF1.6046355068683624
aF1.4196443855762482
aF0.979869157075882
aF1.9644886553287506
aF2.112128123641014
aF2.414536863565445
aF1.9248745739459991
aF2.110850840806961
aF2.223297506570816
aF2.504134327173233
aF1.7132560312747955
aF2.344012886285782
aF2.4558099806308746
aF1.5410559475421906
aF2.4849187433719635
aF2.448753982782364
aF1.7537933886051178
aF1.7832893431186676
aF1.7303134500980377
aF1.7763724625110626
aF2.337916761636734
aF2.116528421640396
aF2.5241078436374664
aF2.3902443945407867
aF2.253490597009659
aF2.645561844110489
aF1.9215601980686188
aF1.41660276055336
aF2.4383563101291656
aF1.9222160875797272
aF2.1369902193546295
aF2.093688279390335
aF2.207325369119644
aF1.6037804186344147
aF2.738084226846695
aF2.1152959167957306
aF1.9188181459903717
aF2.272637754678726
aF2.4402126371860504
aF1.9271318018436432
aF2.098364144563675
aF2.0771304666996
aF1.5939255058765411
aF2.5163680613040924
aF1.3269098848104477
aF2.2794202864170074
aF2.398998647928238
aF1.3521397411823273
aF1.705947071313858
aF1.8915907442569733
aF2.5042909681797028
aF2.1919895708560944
aF1.2048231661319733
aF2.589186578989029
aF2.632902055978775
aF2.3820318281650543
aF1.4740343391895294
aF2.3165394365787506
aF2.371927410364151
aF2.0851674377918243
aF2.4935878813266754
aF2.2790659964084625
aF2.2451566755771637
aF2.4563449919223785
aF2.4219543039798737
aF2.439147859811783
aF1.8949860632419586
aF1.4449556171894073
aF2.145051509141922
aF2.1055223047733307
aF2.5318073332309723
aF2.157841831445694
aF2.2570280134677887
aF2.055109888315201
aF1.7909903824329376
aF2.4469894468784332
aF2.59051051735878
aF2.6959528028964996
aF2.5443712770938873
aF2.7251717150211334
aF2.6950794756412506
aF2.3618971407413483
aF2.152387171983719
aF2.0882164537906647
aF0.76837258040905
aF2.1628338396549225
aF2.3316783010959625
aF1.9570178091526031
aF2.0187380611896515
aF2.3042687475681305
aF2.41411629319191
aF0.5938255488872528
aF2.8301614820957184
aF2.2291537821292877
aF2.246678739786148
aF2.8238915503025055
aF2.201505333185196
aF2.6390766203403473
aF2.139601618051529
aF2.82450595498085
aF2.826216846704483
aF2.3880142271518707
aF2.758847862482071
aF1.8974558413028717
a.