(lp0
F0.0003456258273217827
aF0.0902648975898046
aF0.016516033763764426
aF0.03444210460293107
aF0.05890626480686478
aF0.0443311070848722
aF0.15740224326145835
aF0.052659869397757575
aF0.14186546599376015
aF0.0036164254124742
aF0.03285573815810494
aF0.07596829926478676
aF0.1488611737440806
aF0.05721916610491462
aF0.1724920978595037
aF0.0474117586563807
aF0.003901575953932479
aF0.13323925828444771
aF0.04218285178649239
aF0.047048836742760614
aF0.10332499051583
aF0.04025007432210259
aF0.006575741077540442
aF0.13707666491973214
aF0.18958253765595146
aF0.055090311710955575
aF0.05495702868211083
aF0.010934980382444337
aF0.04594488049042411
aF0.1997239848424215
aF0.09473980570328422
aF0.04685483520734124
aF0.024989567900775
aF0.1149490812967997
aF0.04622493332135491
aF0.15136704241740517
aF0.053585421497700736
aF0.07036322748172097
aF0.13391928767669015
aF0.03491541018593125
aF0.0057156451512128115
aF0.19521671926486306
aF0.09598178064334206
aF0.08515483493101783
aF0.002488207566784695
aF0.15401591753470711
aF0.09019505584728904
aF0.10718170946347527
aF0.15435217713820748
aF0.0727248901675921
aF0.0962468872021418
aF0.045846201275708154
aF0.009443660994293168
aF0.008095346594927832
aF0.04014121348154731
aF0.10685909146559425
aF0.013735973479924724
aF0.1043054273177404
aF0.013023460080148652
aF0.11915087306988426
aF0.025222830270649865
aF0.04102283323300071
aF0.09826544279349037
aF0.10559100305545144
aF0.07040289437281899
aF0.2747852096508723
aF0.024933814798714593
aF0.10912776386248879
aF0.1352195332001429
aF0.05379455184447579
aF0.12317647432792
aF0.005541586986510083
aF0.024993711878778413
aF0.07071484232437797
aF0.13604013228905387
aF0.08677886819350533
aF0.0890866557310801
aF0.1298951992939692
aF0.008323640358867124
aF0.07031932080280967
aF0.021114004543051124
aF0.07977307235705666
aF0.05661663765204139
aF0.1536189427424688
aF0.07170263284933753
aF0.007761230954201892
aF0.01961811611545272
aF0.022928582300664857
aF0.0021262028894852847
aF0.00978965571266599
aF0.09045773351681419
aF0.00340913565014489
aF0.11677649224293418
aF0.08752108758199029
aF0.258530695195077
aF0.06389915550244041
aF0.042861569876549765
aF0.015433379245223477
aF0.06764861548435874
aF0.010106093977810815
aF0.020093828643439338
aF0.06979640925419517
aF0.06299435699474998
aF0.08899458849919029
aF0.03815108185517602
aF0.18171967173111625
aF0.22641416286933236
aF0.003088870522333309
aF0.1292375435878057
aF0.13958644474041648
aF0.006437745149014518
aF0.11059522980940528
aF0.07079449688899331
aF0.03718014041078277
aF0.020888946746708825
aF0.003492301591904834
aF0.12097742015612312
aF0.09136326218140312
aF0.022187348251463845
aF0.076136249845149
aF0.1219309417065233
aF0.08434384668362327
aF0.02462510226177983
aF0.06379015350830741
aF0.08074260150897317
aF0.03218106532585807
aF0.05365646237623878
aF0.05594554895651527
aF0.06890807652962394
aF0.08142268264782615
aF0.008541771938325837
aF0.024188980256440118
aF0.02380756681668572
aF0.026211226562736556
aF0.1897295007656794
aF0.06366975212586112
aF0.029972411488415673
aF0.021818650682689622
aF0.0644979516218882
aF0.05832634473335929
aF0.10178007537615485
aF0.037884842400671914
aF0.16973644102108665
aF0.028048018197296187
aF0.06248602663981728
aF0.0914688890625257
aF0.03744136562454514
aF0.0517124829639215
aF0.051406055892584845
aF0.05856198837864213
aF0.07716773802530952
aF0.25037680959212594
aF0.1109459062863607
aF0.05850697660935111
aF0.0755614971567411
aF0.05395439246785827
aF0.008117621560813859
aF0.09789458269369788
aF0.048883802985074
aF0.06125615889322944
aF0.11297816806472838
aF0.020043127035023645
aF0.046617880259873345
aF0.05818722417461686
aF0.07786756361019798
aF0.019939129968406633
aF0.0960855146695394
aF0.07180887067806907
aF0.020905366371152923
aF0.06373606229317375
aF0.04095102826249786
aF0.058978229557396844
aF0.037829667126061395
aF0.05583810785901733
aF0.08952799046528526
aF0.05524298900854774
aF0.10353310758364387
aF0.09956144148600288
aF0.0395457299600821
aF0.06048442030441947
aF0.050611197744729
aF0.11900760585558601
aF0.052920464222552255
aF0.1085330804635305
aF0.09088206643355079
aF0.046601969545008615
aF0.04626532623660751
aF0.09294159317505546
aF0.08665276670944877
aF0.0029338539752643555
aF0.024643014912726358
aF0.05292990038287826
aF0.11113164926064201
aF0.03584428483736701
aF0.020573122223140672
aF0.035409960692049935
aF0.06355309093487449
aF0.0259631646622438
aF0.11812337095034309
aF0.029366558213951066
aF0.2049915266688913
aF0.05328942442429252
aF0.04738347211969085
aF0.05420756692183204
aF0.033033285493729636
aF0.05686629915726371
aF0.058354713226435706
aF0.08346498364699073
aF0.0361475532699842
aF0.00014889525482431054
aF0.025953845848562196
aF0.03403331691515632
aF0.04450513029587455
aF0.019610069488408044
aF0.08577482754481025
aF0.021737482195021585
aF0.07906498367083259
aF0.0958631893445272
aF0.04869713241350837
aF0.038169476931216195
aF0.03298562372219749
aF0.04304375106585212
aF0.06544060612213798
aF0.047885186766507104
aF0.05165053511154838
aF0.049000821803929284
aF0.029554143344284967
aF0.09322014843928628
aF0.0730861758638639
aF0.04600289816153236
aF0.12266455238568597
aF0.05183014625799842
aF0.047958548908354715
aF0.07671644890797324
aF0.05232584456098266
aF0.005334898101864383
aF0.02630891857552342
aF0.04879130402696319
aF0.12465545927989297
aF0.03580259138834663
aF0.006565415998920798
aF0.024777570535661653
aF0.049929834698559716
aF0.05477895194781013
aF0.0762903580616694
aF0.11055881137144752
aF0.028363596444251016
aF0.0622512286354322
aF0.09681856280076317
aF0.044589940254809335
aF0.028139944915892556
aF0.01960575600969605
aF0.07918765002978034
aF0.04649948680889793
aF0.08288107419502921
aF0.07013854736578651
aF0.05600235631573014
aF0.05320371294510551
aF0.06975674236309715
aF0.048386666720034555
aF0.035707119648577645
aF0.05479353645932861
aF0.05219742635381408
aF0.04452542195213027
aF0.08731446767342277
aF0.07406423593056388
aF0.06135817224276252
aF0.02114545533549972
aF0.0488804166961927
aF0.05608414838206954
aF0.05840418839943595
aF0.015695465524913743
aF0.09166931713116355
aF0.051832258905051276
aF0.047806564514758065
aF0.054354283754946664
aF0.005997516418574378
aF0.04630297402036376
aF0.05041712542879395
aF0.03490019196760841
aF0.006633563200011849
aF0.02473126517725177
aF0.03204458931577392
aF0.07444574291002937
aF0.051379084383370355
aF0.0460248326708097
aF0.0018381573900114745
aF0.20188362503540702
aF0.036419697309611365
aF0.03820284063112922
aF0.03206605071318336
aF0.04517099240911193
aF0.06889843547833152
aF0.06917252039420418
aF0.054782930557848886
aF0.003452378587098792
aF0.08006725067389198
aF0.03625487888348289
aF0.10792245363700204
aF0.04458326453459449
aF0.05526909211766906
aF0.0774957274843473
aF0.01354540212196298
aF0.07392015660298057
aF0.019465537538053468
aF0.07198776656878181
aF0.04536836573970504
aF0.05078092197072692
aF0.06138480475055985
aF0.07284790629637428
aF0.06023725101840682
aF0.06295539790880866
aF0.03260417262208648
aF0.08731554800760932
aF0.0027976240671705455
aF0.061726648156763986
aF0.32033751512062736
aF0.029350774158956483
aF0.0558020880271215
aF0.03670851161587052
aF0.04745992994867265
aF0.04092459360253997
aF0.026223858614685014
aF0.008218614180805162
aF0.036909341608406976
aF0.031963337009074166
aF0.05134949067723937
aF0.046073116158368066
aF0.006845616007922217
aF0.047869413887383416
aF0.04657599682104774
aF0.10317769253742881
aF0.010248757171211764
aF0.1771994123409968
aF0.03649327511084266
aF0.30493221784126945
aF0.04321998337400146
aF0.02023064738023095
aF0.046666659211041406
aF0.03713344017160125
aF0.05843775367247872
aF0.04196176657569595
aF0.11243609731900506
aF0.01549431702005677
aF0.02871087027597241
aF0.04718809181940742
aF0.0077643713157158345
aF0.040215465967776254
aF0.046735036914469674
aF0.03773953000199981
aF0.035093575512291864
aF0.05601650456083007
aF0.006665746885119006
aF0.021071830560686067
aF0.07414675111067481
aF0.04745903218281455
aF0.04005910063278861
aF0.11548687910544686
aF0.050235882197739556
aF0.12705064917099662
aF0.012645791051909328
aF0.06935171390068717
aF0.0063588621851522475
aF0.028792803903343156
aF0.04847348461044021
aF0.03411228975164704
aF0.026302976737497374
aF0.20965823138249107
aF0.016366144438507035
aF0.017438302020309493
aF0.049806695635197684
aF0.06654607856762595
aF0.05038562769186683
aF0.06190446371329017
aF0.06399676596629433
aF0.05293926617014222
aF0.04985799247515388
aF0.022886752878548577
aF0.01960206011426635
aF0.03920878117787652
aF0.06093508770572953
aF0.033566094731213525
aF0.03747521320474334
aF0.0458945331920404
aF0.05263525599730201
aF0.05060154551756568
aF0.07144373262417503
aF0.043654311244608834
aF0.07018413001787849
aF0.08823599314200692
aF0.11025748049723916
aF0.0002815611951518804
aF0.056622169708134606
aF0.017868420312879607
aF0.012518200819613412
aF0.05137225965154357
aF0.11369600499165244
aF0.0024670927959959954
aF0.02275256605935283
aF0.055998794530751184
aF0.09701157337985933
aF0.024159567226888612
aF0.06750373894465156
aF0.03622759485733695
aF0.11307241374743171
aF0.07186960781109519
aF0.04813397696125321
aF0.017352074180962518
aF0.04413703436148353
aF0.11762935316073708
aF0.060521084611536935
aF0.05285950729739852
aF0.004206090496154502
aF0.04601258391630836
aF0.019025817309739068
aF0.05830903703463264
aF0.05417532825958915
aF0.016788719018222764
aF0.043397862260462716
aF0.07455115372431464
aF0.008557917346479371
aF0.03600430840742774
aF0.037432964687468484
aF0.12221482789027505
aF0.01754602769506164
aF0.022432116587879136
aF0.018939111178042367
aF0.009778773208381608
aF0.057241242175223306
aF0.05402127260458656
aF0.041571062261937186
aF0.03193597847712226
aF0.05313190052402206
aF0.05672514790785499
aF0.02598546279477887
aF0.06062775829923339
aF0.043565273081185296
aF0.03984117487561889
aF0.09373557960498147
aF0.1711442580271978
aF0.01440187101252377
aF0.046771582012297586
aF0.046351868455531076
aF0.061523299460532144
aF0.10463548099505715
aF0.02849524116027169
aF0.07056152427685447
aF0.06967312449705787
aF0.14171409999835305
aF0.05594017336261459
aF0.02363435158622451
aF0.152042191271903
aF0.014904917945386842
aF0.017011094634654
aF0.14792364442837425
aF0.043908066843869165
aF0.08629198724520393
aF0.052644956653239205
aF0.01959072073805146
aF0.02818217480671592
aF0.1502682676364202
aF0.10721169019234367
aF0.059494871442439035
aF0.02891774641466327
aF0.01150992905604653
aF0.018722012435318902
aF0.001553028734633699
aF0.06446262056124397
aF0.03759343901765533
aF0.04786884432542138
aF0.00019331046496517956
aF0.0528665816236753
aF0.05251812914502807
aF0.031871371174929664
aF0.01702256707358174
aF0.04512204581988044
aF0.027944877539994195
aF0.03539837503922172
aF0.043109905178425834
aF0.05275004750001244
aF0.025369983399286866
aF0.043072607164504007
aF0.0394977142859716
aF0.01586572712403722
aF0.09346020614611916
aF0.022776967118261382
aF0.04966058229911141
aF7.717765402048826e-05
aF0.0376162713218946
aF0.08171704059350304
aF0.08524614965426736
aF0.0871114095498342
aF0.0016699682164471596
aF0.053733318840386346
aF0.009519387764157727
aF0.06264041757094674
aF0.0013067695836070925
aF0.03373005965841003
aF0.004893868899671361
aF0.05098603272926994
a.