(lp0
F0.35511702682924806
aF0.2407819747168105
aF0.2502324587840121
aF0.030194033606676385
aF0.06998711891355924
aF-0.22953449122724123
aF0.3356284058827441
aF-0.16783119484898634
aF-0.6512311224651057
aF0.16653612416121177
aF-0.22067223757403553
aF0.22785917308283388
aF0.5354627539600187
aF0.49596440430832445
aF0.15120689209652483
aF1.1350732335085922
aF1.3860125435348891
aF2.7678159662718826
aF1.6355796941752487
aF2.8242594414587074
aF3.3803594895834976
aF5.9666774646575504
aF7.974709723257547
aF7.121460441612726
aF5.891609642767435
aF3.625155728423124
aF6.607982184850698
aF3.3218383454914147
aF5.60777675744248
aF10.110214691721922
aF7.688252035641199
aF5.272486325466161
aF8.335169967376714
aF4.273247014843946
aF4.870345857107168
aF9.38348278787089
aF13.237542700135236
aF11.27023138489676
aF11.823899414503103
aF10.089738726728683
aF5.856404569112783
aF8.239703613267011
aF11.228241868429905
aF7.79943377163363
aF11.230720825606113
aF11.807893257700925
aF10.46850065153194
aF5.9699166977043205
aF8.133256700002676
aF14.192727528625255
aF13.006922680997377
aF9.97319024440003
aF10.837597292029386
aF8.846973147356039
aF7.965333670490509
aF5.877434847989207
aF11.609869770818477
aF11.363631080948835
aF13.925438471251255
aF8.378595173471695
a.