(lp0
F0.12541537429206073
aF0.06567365195951425
aF0.11725004282197915
aF0.045457332249497995
aF0.12443072613677941
aF0.04986158278188668
aF0.11614529308280908
aF-0.010808481980348006
aF-0.01824908997514285
aF0.03718696054420434
aF-0.004578696796670556
aF0.06411734665744007
aF0.1272106661926955
aF0.14004104281775653
aF0.11766217346303165
aF0.29519330407492816
aF0.3123628094326705
aF0.6168361499439925
aF0.4113842740189284
aF0.6333242848049849
aF0.7430564954411238
aF1.2340318753849715
aF1.6612165763508528
aF1.4788280322682112
aF1.2359852388035506
aF0.7927374436985701
aF1.3820120885502547
aF0.8710218861233443
aF1.4255201413761824
aF2.0673034980427474
aF1.5857348039280623
aF1.9920097186695784
aF2.4624942138325423
aF0.9773437574040145
aF1.2992312505375594
aF1.9093073203694075
aF2.663423855556175
aF2.297327358974144
aF2.409552653087303
aF2.0742572143208236
aF1.2332576110493392
aF1.7007294490467757
aF2.282615978969261
aF1.5984656407963485
aF2.2776242091786116
aF2.4087560966145247
aF2.134965260280296
aF2.07403786922805
aF1.661949236644432
aF2.869447548640892
aF2.652986605418846
aF2.6764844253193587
aF2.216206867946312
aF1.7827629640232772
aF1.6376493766438216
aF1.1957374408375472
aF2.3563519313465804
aF2.3421190574299544
aF2.827338536037132
aF1.7088089778553694
a.