(lp0
F0.3251264352547878
aF-0.03568988511688076
aF0.035958007647423074
aF0.2865293218928855
aF0.8926855742174666
aF0.17877204969408922
aF-0.13479506902513094
aF0.23501009374740534
aF0.7092496163386386
aF0.4102602197963279
aF0.5847817536232469
aF0.9203205016638094
aF0.8083208502466732
aF0.9355185219283157
aF1.9280031454945856
aF-0.006284635401243577
aF0.7413906269903237
aF5.195661507659679
aF0.9753279798860603
aF1.4967966304357105
aF3.8944309615726524
aF2.0433773883814865
aF7.233309190833097
aF4.758309465014463
aF6.047840178125625
aF12.622540801876312
aF14.098293207698589
aF6.647489540391689
aF11.567181431801146
aF10.048331529014831
aF10.980844818168407
aF14.57444046076489
aF10.546689521634107
aF15.71801610674811
aF14.01062265422297
aF13.253510758822813
aF2.5332057700688893
aF10.877129476630216
aF13.936018984877592
aF14.543626051508909
aF14.498194012903696
aF7.711842473709112
aF14.534039706104522
aF11.730886608474975
aF2.1578769051666313
aF11.473732166105037
aF12.397027317547327
aF9.80575807776404
aF12.447736751400953
aF15.04976204048944
aF5.222486373149877
aF5.923327174150472
aF6.572688337528234
aF9.606657441818243
aF12.797072198354726
aF14.95366324123097
aF14.745688172170048
aF15.338036030643707
aF14.518957942837005
aF6.97422784205628
a.