(lp0
F0.06916627730242908
aF-0.0007335506088566035
aF0.030841619562124833
aF0.07418971773586236
aF0.21834387895069085
aF0.05478636812767945
aF0.06773530956706963
aF0.06537796076736413
aF0.15585450347862206
aF0.14107647057971917
aF0.14540695096366107
aF0.19218948925845325
aF0.20369263435713947
aF0.20056803966872394
aF0.401580412639305
aF0.07718762452714145
aF0.22155033494345844
aF1.063350637210533
aF0.3183825209271163
aF0.3595223024021834
aF0.9323274686466902
aF0.5028959705960006
aF1.5381059243809432
aF1.08896764065139
aF1.26919384743087
aF2.57171328808181
aF2.8451360061299056
aF1.3787369325291365
aF2.3187871768604964
aF2.0703795745503157
aF2.2570532157551497
aF2.994142372859642
aF2.207827170146629
aF3.2022665336262435
aF2.843204815639183
aF2.703946430934593
aF0.5522179200779647
aF2.239562828792259
aF2.8797148063313216
aF2.9781766727101058
aF2.973116476787254
aF2.130729754222557
aF2.9508114650379866
aF2.3953202560078353
aF1.2998181178700179
aF2.3515394523274153
aF2.5462680652271956
aF2.0084250762593
aF2.5328913524281234
aF3.0317724540363997
aF1.7865755155216902
aF1.405199249042198
aF2.125056107295677
aF2.5352137878071517
aF2.6236632659565657
aF3.0635035827290267
aF2.9545529677998275
aF3.102157910121605
aF2.9555011584889144
aF1.9908788993488997
a.