(lp0
F-0.1268238991178805
aF0.11508799478178844
aF-0.02953370363684371
aF0.033347799617331475
aF0.20935011765686795
aF-0.06648285110713914
aF-0.25604305119486526
aF0.13146049081115052
aF0.063936167571228
aF0.0604394098627381
aF-0.06826711149187759
aF0.17570486263139173
aF0.11964946839725599
aF-0.23266935051651672
aF0.19195683969883248
aF-0.06701481441268697
aF0.04294621496228501
aF0.25516397989122197
aF-0.22203542554052547
aF0.004322381864767522
aF-0.2031728278961964
aF-0.024311126035172492
aF0.09676459449110553
aF0.03755306563107297
aF-0.1276247648638673
aF-0.06300952547462657
aF0.07815349585143849
aF0.030389779421966523
aF0.06703207007376477
aF0.09845011605648324
aF0.06651692761806771
aF-0.09288133180234581
aF0.2839705880614929
aF0.05342147982446477
aF0.20716867147712037
aF-0.26555478369118646
aF0.0510387375834398
aF0.22725968912709504
aF0.14364731236128137
aF0.11962097807554528
aF1.1100617193005746
aF0.5409735135617666
aF0.6598937950911932
aF1.1157817600178532
aF0.8597911169636063
aF0.25987238361267373
aF0.9055931188049726
aF0.44790592713980004
aF0.49229037686018273
aF0.8406377091887407
aF0.41424040420679376
aF0.6720234520616941
aF0.45474714337615296
aF0.7763502627494745
aF0.48141053615836427
aF0.26757511048344895
aF0.8242349160718732
aF0.40665798558620736
aF0.773711416113656
aF0.8572524666669779
aF0.3982381217065267
aF0.7185708425822668
aF1.2096819907310419
aF0.743720687169116
aF1.1159052394214086
aF1.090528450149577
aF0.8028368532541208
aF1.2826574288192205
aF1.7103035002946854
aF0.8495051108184271
aF1.347066018206533
aF1.1873137459042482
aF-0.28733521030517295
aF1.2088039467926137
aF0.8284482706221752
aF0.8071766488137655
aF0.7453892866033129
aF0.33885621203808114
aF1.0197389085078612
aF0.662727297458332
aF3.6814070474065375
aF0.7959088377538137
aF2.50505580304889
aF1.7219080470385961
aF3.3249398387852125
aF2.735841970134061
aF2.1299374822410755
aF4.735200411814731
aF1.696455485362094
aF0.788179530936759
aF5.33826431928901
aF5.575493776414078
aF0.480954616505187
aF3.788349020469468
aF6.008517925802153
aF0.9728040054324083
aF0.48971962853102013
aF3.33081640972523
aF2.452934838074725
aF1.1774051256361417
aF1.8874409116688184
aF2.038855335849803
aF1.8820063091698103
aF1.615336395043414
aF2.8485539436223917
aF1.8603144280496053
aF2.566625221807044
aF0.2766845069709234
aF2.039160772401374
aF4.668280880141538
aF3.8351670719566755
aF0.796227834362071
aF0.5014512382331304
aF1.3961142368498258
aF1.5914497963967733
aF0.3541296787443571
aF0.7330957308295183
aF2.995995215314906
aF1.0981869578245096
aF1.9209496371331625
aF3.529942215172923
aF4.672899886209052
aF7.156742075167131
aF6.969270806002896
aF5.86902753188042
aF3.914954333740752
aF3.7667336568119936
aF5.454704768199008
aF7.202567823405843
aF5.312197294260841
aF6.4565713398042135
aF2.729540958243888
aF7.880954283464234
aF7.270058735448401
aF4.158855757850688
aF2.3492028631153516
aF4.211746982473414
aF2.0368563450756483
aF6.329412308696192
aF5.002337402838748
aF7.337364095437806
aF7.731385959486943
aF7.72651568724541
aF4.488620764750522
aF5.006004862661939
aF6.61176123394398
aF1.9122032143059187
aF6.499797354626935
aF2.97453759907512
aF5.9004753708723
aF4.73436039610533
aF1.994820355612319
aF5.908088988799136
aF2.3489619299652986
aF3.3081867985310964
aF3.074881254869979
aF2.3419153757276945
aF5.552678859967273
aF4.652979641396087
aF2.6364335857215337
aF6.207705824926961
aF2.8280696712317877
aF8.630546054046135
aF6.288365542131942
aF8.426628678280395
aF6.567668288189452
aF8.063570600643288
aF8.142957880336326
aF5.665230590093415
aF8.942111225042026
aF7.893498360353988
aF8.812632977205794
aF6.520897249865811
aF7.540071557450574
aF6.592428392905276
aF6.094494636345189
aF7.505701591435354
aF8.757012828427833
aF7.566225423652213
aF6.0404678687336855
aF1.4655261926236562
aF7.090983732778113
aF8.565068903553765
aF9.145323724660557
aF4.240567430097144
aF7.963444876659196
aF6.842782932508271
aF7.048362574714702
aF7.648748855281156
aF7.465145166206639
aF9.30340514256386
aF9.109690568584483
aF8.87394879682688
aF9.91561296134023
aF8.187068092811387
aF6.082595705229323
aF8.40059668495087
aF7.737607459712308
aF7.330040621745866
aF8.737661845225375
aF3.278419182388461
aF8.65310237481026
aF9.446474059659522
aF9.735153994697612
aF8.351339182991069
aF8.605146787303966
aF8.830015144485515
aF7.951003953057807
aF9.231107325467747
aF9.356100174773019
aF8.105118896055501
aF9.940373308199923
aF6.763963650155347
aF8.738811800430994
aF8.511256880301517
aF9.632532063114922
aF7.760144739586394
aF8.482357288885396
aF8.526853366929572
aF9.226376458245795
aF8.21663500944851
aF7.541520192462485
aF8.608453522610944
aF8.392566598195117
aF9.756561002868693
aF9.2969139359775
aF7.241317971784156
aF8.409695259470027
aF8.924324034887832
aF7.8699723139288835
aF10.110427101317327
aF8.219434886414092
aF9.373205329466145
aF8.795396599161904
aF8.882935575384181
aF4.637596278626006
aF9.175505756575149
aF9.26234121172456
aF8.582157499331515
aF1.3558585263672285
aF2.026122894822038
aF7.280021651822608
aF9.33647968544392
aF9.231843563902657
aF9.019688467669766
aF8.988299935299437
aF8.939362920064013
aF10.330772816378158
aF8.682413201022428
aF9.026665507990401
aF8.102146039891522
aF9.154722306120675
aF8.688078995037358
aF8.440058834094089
aF8.528082768607419
aF7.951881109911483
aF9.07396175636677
aF8.154920551169198
aF7.2572629965725355
aF9.40662343724398
aF9.777458838361781
aF8.369977313268464
aF9.09707198588876
aF9.396779655653518
aF9.02402125968365
aF8.990200261760037
aF10.520824014383834
aF8.681664659816306
aF8.758036854851525
aF8.752949989575427
aF8.008733212191146
aF5.131070918578189
aF8.285605848941486
aF8.032820268708747
aF9.043843156832736
aF8.871223821479362
aF8.576242613780778
aF7.563539955008309
aF7.80969961284427
aF7.776853076356929
aF5.179370992373151
aF8.356738451111596
aF9.842372096318286
aF7.346150099474471
aF9.64697328134207
aF8.95100624038605
aF8.91902656032471
aF7.540210501465481
aF8.271067577588838
aF9.859497460711282
aF10.058748719457071
aF8.187261919665616
aF2.1187034316244535
aF8.927914190280717
aF8.54999490751652
aF9.095899804669898
aF8.77777398301987
aF6.6471767306211405
aF7.28012402280001
aF9.274667880672496
aF9.276698387402575
aF9.262118979531806
aF6.604336078453343
aF7.206106900412124
aF8.085699795919936
aF8.421623191970866
aF9.405233717698138
aF9.95186521409778
aF8.674739568668883
aF8.172580569225829
aF9.206140830356162
aF9.459536069480237
aF2.037976428109687
aF8.292478441435378
aF8.040135360497516
aF6.763369838881772
aF8.226757503289264
aF7.622596367436927
aF8.465417294937652
aF9.584017179149669
aF2.71070297130791
aF8.63713501690654
aF7.293711348611396
aF3.6516832999768667
aF2.2304361007991247
aF10.201777170586865
aF3.003344058233779
aF8.452157138090115
aF9.816891296941321
aF4.483686096209567
aF8.719414684164803
aF6.25803117378382
aF3.1827690891805105
aF8.743331103760283
aF10.193186148244422
aF0.9344889663043432
aF6.120324067014735
aF9.147278188902419
aF5.391339778143447
aF2.626079104084056
aF5.269651829439681
aF6.756419695157092
aF9.76637189014582
aF9.275378703314345
aF8.295071671891492
aF7.232369898993056
aF1.5542771547916345
aF7.9812815666082315
aF8.489044594753068
aF6.66051570995478
aF7.010823979217093
aF8.683772578078788
aF8.622210907924455
aF9.57521802483825
aF8.480879000562709
aF9.98444252385525
aF8.805844403977972
aF9.034611906099599
aF5.561342218134087
aF7.966310500341933
aF7.859953560619033
aF9.570784016686957
aF10.634954820561688
aF8.707998466852587
aF4.5256090044858865
aF7.39687691180734
aF9.862894050020259
aF8.117910518485587
aF7.755218154925387
aF6.2341877512517385
aF9.44587790145306
aF9.126341312367003
aF9.57180878816871
aF10.56398118584184
aF3.212510391313117
aF9.504703476268332
aF7.524717270571273
aF9.348056546587031
aF8.008751154120546
aF9.325025367725175
aF8.83730311616091
aF9.650607376534026
aF7.553915276366752
aF9.861320208001416
aF9.42733686621068
aF6.698153249162715
aF9.374171427625697
aF8.65273116825847
aF9.22341064288048
aF5.966390359390061
aF8.945152449596208
aF7.7438500776770525
aF9.220329976815265
aF9.403255625802558
aF9.452128994453233
aF9.593399397272151
aF9.462176595989149
aF9.176315504300874
aF9.058977521199267
aF-1.2176012620329857
aF8.025325241251267
aF8.391079592693131
aF9.743328880285844
aF10.25072652817471
aF8.960088945168536
aF9.803253772843163
aF9.410118746745866
aF9.587216179061215
aF8.678735501307528
aF7.394253199163359
aF9.941126394260209
aF8.141930352139752
aF7.2940789416315965
aF9.640298054728191
aF7.809232806030195
aF8.035881328978576
aF10.031734786171
aF8.1817008528742
aF7.737085229891818
aF9.1693429715815
aF10.405720572161954
aF6.996897102508228
aF9.610433175403159
aF10.408307898032945
aF11.00878032593755
aF9.910265772778075
aF7.827802705287468
aF8.711141808016691
aF10.22948752361117
aF9.509970403451007
aF9.54151575191645
aF10.124762288469356
aF8.91848102262884
aF7.59013000613777
aF10.061269967991393
aF8.640090215194505
aF9.674470990139525
aF8.075220572936814
aF8.926540154207032
aF10.982553704816382
aF7.962284255991108
aF10.370734582829755
aF10.219050913292449
aF9.751730074349325
aF9.751730074349325
aF9.751730074349325
aF-2.540936218574643
aF8.368899819615763
aF7.519996582705062
aF7.519996582705062
aF1.9477448239922523
aF9.818404118705075
aF10.70215843821643
aF9.779457549739163
aF9.435267976659816
aF9.919360100466292
aF9.299681826669257
aF9.334766489628237
aF5.554331689490937
aF5.554331689490937
aF9.433669808495324
aF8.951547599572223
aF6.575195591140073
aF9.990258345205802
aF10.118534422654193
aF10.749468139547389
aF10.082927252806257
aF8.601986418652814
aF9.722417804587167
aF9.439197953033727
aF9.575238420802634
aF8.714002824563067
aF10.46715240663616
aF10.744838125247043
aF9.75066500453977
aF10.942476435739081
aF9.963918344292324
aF10.590661472815555
aF9.013310230511706
aF9.411554883408826
aF9.895699440676253
aF10.042524409655016
aF7.8676640495541506
aF10.353771873924416
aF7.505445281713037
aF10.185009080159944
aF10.645962997514289
aF9.936100674967747
aF8.365421748894732
aF10.260956415149849
aF10.599089942115825
aF9.908262870449107
aF7.278526953596156
aF9.438315143052023
aF8.737503091979306
aF10.153260479855817
aF9.359401229012292
aF8.334927342075389
aF9.08460133447079
aF5.9628956179949455
aF10.029085033747833
aF9.562391482468229
aF9.128799370664638
aF9.909338538709562
aF9.572768162179273
aF10.7069983027759
aF9.826063073414844
aF10.450123555201571
aF7.74844915344147
aF9.767194974410813
aF10.172765839088243
aF8.436220891017001
aF9.801035306591075
aF9.51674171461491
aF10.870624377566855
aF9.712700366217177
aF9.567721548082773
aF10.160201813268941
aF10.182231205690186
aF7.431212204683106
aF9.887124716478866
aF9.738692498940509
aF10.174851759511512
aF9.46818931697635
aF8.632023830650724
aF10.271959870296996
aF10.329234550881665
aF8.377292256045621
aF9.710918708879035
aF9.556928730744403
aF10.336360227956902
aF9.60044202132849
aF8.237844786781352
aF10.059488645929378
aF9.88723680115072
aF9.839123098354321
aF9.370628341275733
aF9.773414123046678
aF9.770591619599145
aF10.065649698663037
aF9.962143290031236
aF9.78852770960657
aF10.26924057136057
aF10.457477986055892
aF9.982937506574672
aF9.666132356214803
aF9.063910830009263
aF8.614411565649789
aI0
aF6.125199065718334
aF6.543717310705688
aF10.452957849192899
aF9.183529249567073
aF9.58191709331004
aF10.410403310961556
aF9.567250522959512
aF9.923286924313288
aF9.597323655325454
aF8.635897321801167
aF9.305854539561551
aF9.986778848979156
aF9.80862589291064
aF8.928596123296302
aF9.910386816773098
aF7.838747889909428
aF6.283819445161498
aF7.413667726505082
aF8.795954871166032
aF10.899687170458492
aF9.705120331782382
aF9.73780532105593
aF9.613062708813231
aF8.10101705341367
aF-0.8132553100585938
aF9.540255514148157
aF9.857668296608608
aF9.247006611840334
aF8.925764120358508
aF8.713778617966454
aF8.723933088767808
aF9.736132917169016
aF10.033800273376983
aF9.562675251800101
aF7.773642108950298
aF7.497469975787681
aF9.575928726408165
aF10.524703634146135
aF11.235947783279698
aF9.785924970346969
aF10.32382308243541
aF9.51894934027223
aF9.316160313028377
aF8.137337255466264
aF10.340253903705161
aF9.863794974226039
aF9.51378357334761
aF9.379714585084002
aF8.678097396332305
aF7.942582859832328
aF9.58970968349604
aF9.071579419251066
aF9.891318904410582
aF10.05804043932585
aF9.763722761708777
aF10.00840912311105
aF7.174276255755103
aF8.571883819240611
aF10.46183919737814
aF9.004167608509306
aF9.744429604324978
aF6.692524512473028
aF9.619635033595841
aF8.671950834977906
aF10.41843182843877
aF7.1112749792519026
aF10.026086733851116
aF9.629062607127707
aF10.032136223453563
aF10.159476666885894
aF10.157805715862196
aF9.717070262122434
aF10.756864380091429
aF10.107247146952432
aF9.447265423077624
aF9.653811107564252
aF8.60489447339205
aF10.120888210076373
aF7.546355805534404
aF9.771945147949737
aF10.292896057653707
aF10.266688146803062
aF10.407102789904457
aF8.868137437093537
aF9.199300675827544
aF10.226338288921397
aF10.723745093855541
aF10.752752970147412
aF6.76045185624389
aF10.749726479116362
aF10.705952315765899
aF9.257160171109717
aF10.142381204932462
aF9.975648119288962
aF9.539121060806792
aF9.798790819186252
aF6.537840404162125
aF9.552564404148143
aF9.938911951321643
aF8.239477786410134
aF10.817045725125354
aF10.071152976888698
aF9.976863029587548
aF9.80443826148985
aF10.121774605649989
aF9.778794950980227
aF9.975246402609628
aF10.017673908441793
aF9.390411625790875
aF-1.1149956844747066
aF9.237010085198563
aF9.730276602494996
aF10.089874453551602
aF9.872672098863404
aF9.486762711021584
aF9.878427970397752
aF10.19436302332906
aF10.716474062937777
aF9.862613498407882
aF10.107523954648059
aF10.163176103669684
aF10.195050600159448
aF10.297960601455998
aF10.090311902749818
aF8.554500236350577
aF9.455244231212419
aF9.802803497004788
aF9.650856943044346
aF9.079632188368123
aF9.860425197693985
aF7.875320564198773
aF10.161410744476598
aF9.121052256959956
aF9.547973645094316
aF9.003365325916093
aF10.251691348094027
aF6.379716733645182
aF9.44440972263692
aF9.361894509929698
aF8.998421008873265
aF9.84266296698479
aF9.643012939195614
aF11.04459822847275
aF8.898872758436482
aF9.279689236718696
aF8.318762581038754
aF10.00988509011222
aF9.408706805843394
aF8.343843395996373
aF9.605115388694685
aF10.699256348598283
aF10.22240348829655
aF8.993012483406346
aF9.931721284228843
aF10.561474978167098
aF9.51719431875972
aF10.165003097790759
aF10.6519462048891
aF9.426385983533692
aF10.116855583328288
aF8.722910515207332
aF9.867854553449433
aF9.735570817429107
aF9.909578289079946
aF8.885193715977948
aF9.498168218124192
aF9.6684445507708
aF9.02115084900288
aF7.202264524239581
aF8.8425842646393
aF10.125945179897826
aF8.942372284072917
aF10.573465856432449
aF8.622085235256236
aF9.26444695389364
aF8.876622921961825
aF8.473270677714027
aF8.599260679620784
aF9.861470579344314
aF8.670297853823286
aF9.327946349221747
aF9.114065773028415
aF10.203991702001076
aF9.636317609983962
aF10.087366688239854
aF9.544787082995754
aF9.3020314045134
aF9.895600347954314
aF6.705393145966809
aF10.31008229329018
aF10.046939968306106
aF9.594095839420334
aF7.543071496475022
aF9.990686631936114
aF7.6514203727128915
aF7.949211231607478
aF9.027510925370734
aF10.867379104893189
aF9.971135465602856
aF10.186104464519303
aF9.411215779546183
aF7.713765694934409
aF8.884518823761027
aF10.326520285743754
aF9.758432253438514
aF9.706475983548444
a.