(lp0
F-0.019994482776382938
aF0.024235639430116862
aF0.03485891380114481
aF0.023037964187096804
aF0.0630818919162266
aF-0.008914556645322591
aF0.0030300893704406917
aF0.04393765487475321
aF0.029540508694481105
aF0.02687182807130739
aF0.011346315674018115
aF0.03873011254472658
aF0.025908315263222903
aF-0.011616790958214551
aF0.07228308328194544
aF-0.0038184947916306555
aF0.027648616291116923
aF0.07224505551857874
aF-0.012786913954187185
aF0.011890022724401206
aF0.023996941454242915
aF0.008870771795045584
aF0.029175165749620646
aF0.018087356991600245
aF-0.013436718203593045
aF0.01683868811232969
aF0.04299324535531923
aF0.022111290774773806
aF0.03678733640117571
aF0.03294107475085184
aF0.034615026495885104
aF-0.018154561810661107
aF0.07789310970110819
aF0.02945076272590086
aF0.0517777890781872
aF-0.010615567967761308
aF0.04783679329557344
aF0.04595253028674051
aF0.08875157096190378
aF0.041531933180522174
aF0.2618027418793645
aF0.1731643766979687
aF0.16552130290074274
aF0.2366845399956219
aF0.18240400560898706
aF0.11307424464030191
aF0.23632861085934564
aF0.13691326387925074
aF0.1764718682388775
aF0.1907785625080578
aF0.17974364169640467
aF0.18998205073876306
aF0.13510563381714746
aF0.1875289023737423
aF0.14613237389130518
aF0.10464687802596018
aF0.17963571258587763
aF0.14287550159497187
aF0.17405677743954584
aF0.20582927175564691
aF0.14381579466862604
aF0.19102227099938318
aF0.2596857936005108
aF0.20019862957997248
aF0.25813684769673273
aF0.2541235775570385
aF0.1767925263266079
aF0.3032670707325451
aF0.3423942715744488
aF0.1986928225378506
aF0.27182535239262506
aF0.2631750495056622
aF0.08326676645083353
aF0.24908972688717768
aF0.17886737891240045
aF0.19855734118027613
aF0.15436024375958368
aF0.13692362018628046
aF0.20479140587849542
aF0.1632667274097912
aF0.8114231914223637
aF0.2044133932213299
aF0.5555102021316998
aF0.37721706338925287
aF0.7261425644974224
aF0.5949142367462628
aF0.43832496710820124
aF0.9955820829491131
aF0.4115926415543072
aF0.23111098416848108
aF1.110765794001054
aF1.1296920568565838
aF0.19166446634335443
aF0.7983610422234051
aF1.2107913286308758
aF0.2476756811956875
aF0.18558374949498102
aF0.7001178652863018
aF0.5681618840317242
aF0.29331366129918024
aF0.42822192021412775
aF0.46414817281765863
aF0.4465022475342266
aF0.38696945615811273
aF0.6191373855690472
aF0.4357048661331646
aF0.5897389442543499
aF0.127971479378175
aF0.46304271527333185
aF0.9908813030342571
aF0.82547793694539
aF0.26351372309727594
aF0.1663964629988186
aF0.34020320483250543
aF0.39011398860020563
aF0.16394508787197992
aF0.20070701249642298
aF0.6753235847572796
aF0.27477780886692926
aF0.4537761897663586
aF0.7913097232521977
aF0.990075686655473
aF1.436812141619157
aF1.4122894794563763
aF1.2259139806847088
aF0.8457993061165325
aF0.8117906243423931
aF1.1458207161049359
aF1.4482098610023968
aF1.0638179571251385
aF1.4470970422844402
aF0.6046026141266339
aF1.6356165201286785
aF1.5031171829323284
aF0.88229767390294
aF0.5158889085869305
aF0.8980403930763714
aF0.4612360686878674
aF1.2679693491081707
aF1.048080304346513
aF1.5056882888893597
aF1.5600114853004925
aF1.6091477663139813
aF1.0136759073357098
aF1.0146701128105633
aF1.3728649408440106
aF0.43368966289563105
aF1.3388912469963543
aF0.6541005165199749
aF1.2035237342934124
aF1.0116936952690594
aF0.4655152053455822
aF1.2253248483757488
aF0.5313568503479473
aF0.7439385444740765
aF0.6990068943123333
aF0.5121671945671551
aF1.167562463961076
aF1.01406596013112
aF0.5803638488869183
aF1.26033909022226
aF0.6324291617493145
aF1.7325149566750042
aF1.3311224968056194
aF1.7566035778145306
aF1.4133997947792523
aF1.6148531229118817
aF1.6767375261406414
aF1.19059024163289
aF1.8188880474190228
aF1.708913543901872
aF1.8054420740227215
aF1.3492351562599652
aF1.5541852504829876
aF1.3799876958946697
aF1.2396487981895916
aF1.5252678186516277
aF1.806781509600114
aF1.5503899843315594
aF1.2616610319237225
aF0.4243448466877453
aF1.5830490381340496
aF1.7456462175468914
aF1.8529895336250775
aF0.9151264221291058
aF1.6460273058037274
aF1.4274093896965496
aF1.4550463945488445
aF1.5537078172783367
aF1.537727692804765
aF1.9188730508903973
aF1.884198764048051
aF1.8060061723808758
aF2.0121185571770184
aF1.6836267501930706
aF1.3469941408257
aF1.717568019113969
aF1.6026071102241985
aF1.5072150022606365
aF1.7816937954048626
aF0.7446670025528874
aF1.7769257814507
aF1.9260082037071697
aF1.986527422151994
aF1.713939645967912
aF1.7816225082497112
aF1.8060222656349652
aF1.8030531198601238
aF1.8727538377861492
aF1.917784074030351
aF1.6479116470436566
aF2.0295824796776287
aF1.371397832117509
aF1.7568349630455486
aF1.7622668535332195
aF1.9759537965874188
aF1.6153886110405438
aF1.7150404245476238
aF1.7686080724815838
aF1.8721940309624188
aF1.658447006426286
aF1.5597313434700482
aF1.752980926714372
aF1.7260690719704144
aF2.0031158716301434
aF1.9094209463219158
aF1.525857666216325
aF1.731322982988786
aF1.8943048507790081
aF1.6213795930962078
aF2.0266816408257
aF1.7249538690666668
aF1.9030425340752117
aF1.7922851831535809
aF1.8463977367500775
aF1.0304089576820843
aF2.0231876165489666
aF1.9072131902794354
aF1.7610870391945355
aF0.3558849186520092
aF0.5015227883995976
aF1.8565603286842816
aF1.9199516565422527
aF1.8833070785622112
aF1.8603765756706707
aF1.8681551010231487
aF1.8224010259727947
aF2.104494789324235
aF1.7849530965904705
aF1.8918802530388348
aF1.6788241655449383
aF1.8766023904900067
aF1.7822938949684612
aF1.7291114122490399
aF1.760860779962968
aF1.6659339458565228
aF1.8906672985176556
aF1.670009949884843
aF1.5219738275627606
aF1.93978617497487
aF2.0178160459618084
aF1.7267253191093914
aF1.8509467632393353
aF1.9439093858818524
aF1.8514896423439495
aF1.8376562387566082
aF2.167348364077043
aF1.8000455886940472
aF1.793503740511369
aF1.7983722478966229
aF1.6782386095146649
aF1.137749174318742
aF1.688157060823869
aF1.6503959686378948
aF1.860227921686601
aF1.8249879867653362
aF1.7621681482414715
aF1.5482431442360394
aF1.6169370205025189
aF1.5951028854469769
aF1.0117620915116277
aF1.695319393358659
aF2.0378713399986736
aF1.5083437950233929
aF2.0746538431267254
aF1.8330634624580853
aF1.8238017351250164
aF1.5258148700813763
aF1.697838524065446
aF1.9952051431755535
aF2.038743475161027
aF1.6960384637932293
aF0.5359362752060406
aF1.8208715707878582
aF1.7579320461372845
aF1.9064066202263348
aF1.8104820043663494
aF1.381859520159196
aF1.7488988430122845
aF1.9022323877434246
aF1.8997128994087689
aF2.026892402849626
aF1.2125869781593792
aF1.4852189809898846
aF1.6625484020332806
aF1.7480093032936566
aF1.9207742006401531
aF2.0515353471855633
aF1.7700459749321453
aF1.7389329464058392
aF1.9432618410210125
aF1.893505314073991
aF0.5636151821236126
aF1.7456642181496136
aF1.6676013261894695
aF1.4103090555290692
aF1.698404052935075
aF1.58201930829091
aF1.7574100286583416
aF1.9648780614952557
aF0.6389015406311955
aF1.7801437170128338
aF1.5424577982048504
aF0.8873430878738873
aF0.5464724094490521
aF2.0763273031334393
aF0.7290454299072735
aF1.7034542352776043
aF2.1572980672935955
aF0.9941169411758892
aF1.7760082275490277
aF1.3294026643852703
aF0.7535813839058392
aF1.8165104181389324
aF2.107149580202531
aF0.5233920604805462
aF1.3067935497383587
aF1.8957996160606854
aF1.1027506382088177
aF0.5906433851341717
aF1.081319788179826
aF1.4493887216667645
aF1.983910301409196
aF2.009972551546525
aF1.7016159088234417
aF1.5152323038200848
aF0.35697669693036005
aF1.6389608175377361
aF1.7527389318565838
aF1.3850867540459149
aF1.442102292261552
aF1.7841659576515667
aF1.7862971813301556
aF1.9571538955788128
aF1.7463156969170086
aF2.0795860082725994
aF1.768803575716447
aF1.8364245683769695
aF1.129792311869096
aF1.6949087173561566
aF1.628189751500031
aF2.006776788912248
aF2.1820003778557293
aF1.7659581691841595
aF0.9668013245682232
aF1.4915292055229656
aF2.0590152532677166
aF1.6832242996315472
aF1.6241187841515057
aF1.389706829271745
aF1.9428932458977215
aF1.906950333795976
aF1.953709343157243
aF2.1736130506615154
aF0.784927228174638
aF2.035205820284318
aF1.5850775034050457
aF1.9283393413643353
aF1.6155019790749066
aF1.8985740930656902
aF1.81568048306508
aF2.0463225633720867
aF1.5757429391960613
aF2.017610767565202
aF1.8860639125923626
aF1.4048831255058758
aF1.8874776155571453
aF1.7681550771812908
aF1.8922042638878338
aF1.230126956186723
aF1.82504270382924
aF1.573683241091203
aF1.9014942438225262
aF1.9113662035088055
aF1.9442456752876751
aF1.9893735439400189
aF1.9043336898903362
aF1.885692814073991
aF1.8571827203850262
aF-0.21821081638336182
aF1.6204758375824895
aF1.7287391216377728
aF1.9490978510002606
aF2.0574955732445233
aF1.8236541540245526
aF1.99906192132039
aF1.892246940813493
aF1.9338834077934735
aF1.8376413375954144
aF1.488371470652055
aF2.0328309328178875
aF1.6679309398750775
aF1.476148226938676
aF1.9559881479362957
aF1.5701749116997235
aF1.6080300600151531
aF2.0603270322899334
aF1.6749698907951824
aF1.6004864961723797
aF1.8564278871635906
aF2.1123015672783367
aF1.4238885433296673
aF1.9490947515587322
aF2.1066832334618084
aF2.231281259737443
aF2.0822839529137127
aF1.622377613268327
aF1.7194801361183636
aF2.0551292688469402
aF1.9652588159660809
aF1.9725907833199017
aF2.07166192837758
aF1.7837680370430462
aF1.5269334108452313
aF2.040673235140275
aF1.7293599636177532
aF1.9843486339668743
aF1.6711928636650555
aF1.8168900997261517
aF2.251621702394914
aF1.5959497183503117
aF2.122436025820207
aF2.153890827379655
aF1.9291627199272625
aF1.9291627199272625
aF1.9291627199272625
aF-0.5017437934875488
aF1.690654733858537
aF1.5502720863441937
aF1.5502720863441937
aF1.940344789705705
aF1.9802042038063519
aF2.1420416624168865
aF1.9806486160377972
aF1.9301445276360027
aF2.0555758268455975
aF1.9037618429283611
aF1.8891417772392742
aF1.03424737759633
aF1.03424737759633
aF1.9047075302223675
aF1.8301639349083416
aF1.365407922945451
aF1.9985730440239422
aF2.0653061658958904
aF2.207479694567155
aF2.0227577478508465
aF1.7543251306633465
aF1.9636869222740643
aF1.9311513692955486
aF1.9612085611443035
aF1.7951802999596111
aF2.1106643468956463
aF2.1906707079033367
aF1.978718379221391
aF2.243231514177751
aF2.0060734541038983
aF2.1635658533195965
aF1.8462984354118817
aF1.904447892389726
aF2.00059840985341
aF2.0375053674797527
aF1.6243722231010906
aF2.0799355299095623
aF1.5508992165268864
aF2.0936271936516277
aF2.137446621141862
aF2.0019748003105633
aF1.7208922893623821
aF2.0607402116875164
aF2.132542112551164
aF2.0243522913078777
aF1.5166786701302044
aF1.8936776907066815
aF1.7884065897087567
aF2.0617222578148358
aF1.9053538829903118
aF1.737055757723283
aF1.8310518056969158
aF1.2144744188408367
aF2.029289940081071
aF1.927245834551286
aF1.8761484415153973
aF1.9919780284981243
aF1.9354915411095135
aF2.17920849629445
aF2.012737253389787
aF2.146709182939958
aF1.6009238750557415
aF1.9719135553459637
aF2.089261034212541
aF1.7976932317833416
aF2.010201910219621
aF1.942530372820329
aF2.225742796144914
aF1.9609607250313275
aF1.9148685724358074
aF2.07325408764882
aF2.090660789690446
aF1.5074010879616253
aF2.025526264391374
aF1.9928767473320477
aF2.0825443060020916
aF1.949374774179887
aF1.7559345453919377
aF2.0820271761040203
aF2.095790127001237
aF1.7090431243996136
aF1.9961015970329754
aF1.9586007387260906
aF2.070072630129289
aF1.9690820963005535
aF1.6951846868614666
aF2.0727877409080975
aF2.005934217653703
aF1.9693918020348065
aF1.9299659521202557
aF2.0148443967918865
aF1.9915869028191082
aF2.0193300039391033
aF2.0478062421898358
aF1.979298213205766
aF2.0582639963249676
aF2.1792661935905926
aF2.020685651979875
aF1.9830184967140667
aF1.8701311142067425
aF1.6543136627296917
aF0.0
aF1.2663246185402386
aF1.2547247202019207
aF2.110029676638078
aF1.8699449092964642
aF1.9294715911964886
aF2.084813097200822
aF1.963157036982011
aF1.9941936523537152
aF1.9918381960014813
aF1.7393409998039715
aF1.8972896129707806
aF2.0210180074791424
aF1.9891732723335735
aF1.837688425264787
aF2.0100245267967694
aF1.585457423410844
aF1.3688392132462468
aF1.5085460931877606
aF1.782249668322038
aF2.18098113843007
aF2.0007433683495037
aF1.9973323137382977
aF1.9437213928322308
aF1.6610593587975018
aF1.5046295911888592
aF1.9159552843193524
aF1.9821316988090985
aF1.8503182918648235
aF1.8392435104469769
aF1.7839348108391277
aF1.7805191070656292
aF1.9750749857048504
aF2.1100287229637615
aF1.9315540582756512
aF1.5733048708061688
aF1.5648447067360394
aF1.9333936960319988
aF2.1239912302116863
aF2.2632779867271893
aF1.9800004751305096
aF2.0985090524773113
aF1.9358222276787274
aF1.9131492168526165
aF1.635493019304704
aF2.0950896532158367
aF2.0299455911736004
aF1.951363185129594
aF1.9311662704567425
aF1.9461824686150067
aF1.6384775430778973
aF1.9776445419411175
aF1.8188431055168621
aF1.9849808008293621
aF2.044048288546037
aF1.9932706148247235
aF2.0591437608818524
aF1.4793679207505193
aF1.7532233984093182
aF2.102238634310197
aF1.8019548446754925
aF1.976396897516679
aF1.3604000599007122
aF1.9781818182091229
aF1.7909654171089642
aF2.086759069643449
aF1.477153995714616
aF2.016855219088029
aF1.973564842424821
aF2.054666021547746
aF2.0625548154930584
aF2.0556037218193524
aF1.9730462820152752
aF2.1517271787743084
aF2.0568437368492596
aF1.9037859232048504
aF1.9906707794289105
aF1.760045030794572
aF2.043062189302873
aF1.5705662757973187
aF1.9932806284050457
aF2.080284574709367
aF2.0727476865868084
aF2.0909695417503826
aF1.8356889278511517
aF1.8705994875053875
aF2.079378584108781
aF2.157362917147111
aF2.1887147218803875
aF1.3777090103249066
aF2.1537930757622235
aF2.1840224058250897
aF1.8801147729973309
aF2.034658172808122
aF2.0297598631004803
aF1.9411414653877728
aF2.004464367113542
aF1.3403084963501897
aF1.9417212993721478
aF2.021432140551042
aF1.6909090072731487
aF2.179051616869401
aF2.0641579420189373
aF2.037345865450334
aF1.96826038666768
aF2.09652707882924
aF2.0178637296776287
aF2.0289430410484783
aF2.0083460599998944
aF1.920825699053239
aF1.701682427607011
aF1.8554442913155071
aF1.9960914642433636
aF2.020772436342668
aF2.0287813932518475
aF1.9156176836113445
aF1.993652084551286
aF2.0791449339012615
aF2.2255379945854656
aF1.9908100158791058
aF2.082909324846696
aF2.078467586718034
aF2.084777334413957
aF2.0620617658714764
aF2.0721113473991863
aF1.7502915651421063
aF1.9483330041985027
aF1.9875507146934979
aF1.9556630642036907
aF1.8590618164162152
aF1.986758568964433
aF1.5931373626808636
aF2.0653083116631024
aF1.8674251825432293
aF1.9381787569145672
aF1.8522872717003338
aF2.09560630627675
aF1.27764386832132
aF1.8958999902824871
aF1.9067079813103192
aF1.8259048254112713
aF2.0131847650627606
aF1.9398816616158001
aF2.2603554517845623
aF1.8291072637657635
aF1.8956724197487347
aF1.712423542223405
aF2.006356695375871
aF1.9250138790230267
aF1.7026703149895184
aF1.931250789843034
aF2.1676718980888836
aF2.0638904363731854
aF1.8402433187584393
aF2.0285274774651043
aF2.1791014463524334
aF1.9455512554268353
aF2.068706491671037
aF2.1494688779930584
aF1.8873293192009442
aF2.0710747034172527
aF1.7641680032829754
aF2.0298380643944256
aF2.0371742040733807
aF1.9898922235588543
aF1.8069698602776043
aF1.9161637813667767
aF1.9834210664848797
aF1.85095081635518
aF1.455625870905351
aF1.783123233995866
aF2.1029934675316326
aF1.7974246532539837
aF2.1206536085228436
aF1.7625186235527508
aF1.853542664728593
aF1.8133233577827923
aF1.7304396122635808
aF1.7696265966515057
aF2.0079312116722576
aF1.7389026672462933
aF1.909378984651994
aF1.874687889299821
aF2.055873134813737
aF1.9912662298302166
aF2.075256088457536
aF1.9188127309898846
aF1.9123194009880535
aF2.0125224382500164
aF1.3869329483131878
aF2.0789620668510906
aF2.08601043530507
aF1.919514277658891
aF1.515480616770219
aF2.04846856900258
aF1.582028606615495
aF1.6235806734184735
aF1.8471311122993939
aF2.182928779802751
aF2.0028438360313885
aF2.0939974577049725
aF1.9081779510597698
aF1.5927524358849041
aF1.8296327383141033
aF2.0833182127098553
aF2.032545545778703
aF1.9743759424309246
a.