(lp0
F-0.034095454848284135
aF0.238273960276274
aF-0.4218293803569395
aF0.1397650239232462
aF0.4767811454075854
aF-0.19066305321757682
aF-0.1482794115145225
aF0.24841636113706045
aF-0.3199033143755514
aF0.1654319248336833
aF0.4474301907430345
aF0.2633981724466139
aF1.5187812355543429
aF1.462014135086065
aF2.781140770875936
aF1.8006192186112457
aF1.8118383401269966
aF3.7684103884930664
aF1.7476237976188713
aF2.455114539825445
aF2.1688453518981987
aF5.831048455202108
aF15.261445645355707
aF12.630344390981918
aF9.405659962558275
aF13.152347993218427
aF6.34835075970841
aF8.664456423484808
aF15.719563103393739
aF17.72050543140722
aF12.863491144144064
aF16.536106408184423
aF18.889403933771973
aF20.18131583381546
aF17.56306931760264
aF12.420502867662435
aF18.638420672268694
aF17.51740064855767
aF15.247433152162557
aF19.01035879191113
aF14.939138390236621
aF14.672621604167944
aF17.490096394085413
aF17.387263331675058
aF19.091352689192718
aF15.211681988203054
aF16.02054978173328
aF16.937562100702053
aF16.555731300377374
aF18.358336001747375
aF17.444169636928564
aF17.826901044809347
aF20.242910435536032
aF20.11179395403815
aF19.23198940616203
aF20.123889971637254
aF17.37045245628906
aF18.01554825540734
aF20.0393478145088
aF16.80900182958794
a.