(lp0
F0.08101851935498416
aF0.0993092235585209
aF-0.008075470250332728
aF0.03759606447420083
aF0.14217668291530572
aF0.0008921069966163486
aF-0.00265181963914074
aF0.0847554903884884
aF-0.048631799552822486
aF0.11906913187704049
aF0.09768504346720874
aF0.061950963689014316
aF0.3134175732266158
aF0.3662257685791701
aF0.613052625907585
aF0.45513670588843524
aF0.43836610461585224
aF0.8308690383564681
aF0.5309425189625472
aF0.7273258760105819
aF0.6640247895848006
aF1.3240011527668685
aF3.1185985400807112
aF2.5812733962666243
aF1.960961539996788
aF2.826411087764427
aF1.8901218965183944
aF2.2160700156819075
aF3.1499241187702864
aF3.5628007247578353
aF3.039616425288841
aF3.3809634044300765
aF3.7957204177509993
aF4.063999493373558
aF3.566119511378929
aF2.582950670970604
aF3.734123070491478
aF3.554612238658592
aF3.246931393397972
aF3.866771538509056
aF3.035474856151268
aF3.419963677180931
aF3.557116825832054
aF3.5151017501484603
aF3.830690939677879
aF3.3075755431782454
aF3.2449343993794173
aF3.4402774169575423
aF3.3700311973225325
aF3.719308693660423
aF3.595052082790062
aF3.638671238673851
aF4.069105942500755
aF4.078976948512718
aF3.888880093349144
aF4.072836716426536
aF3.5012045695912093
aF3.7012873485218734
aF4.018285115016624
aF3.414287884486839
a.