(lp0
F0.08783761032464099
aF0.051654431503266096
aF0.07638520793989301
aF0.009737861808389425
aF0.04682045383378863
aF0.039119519758969545
aF0.027098864782601595
aF0.03507221816107631
aF0.015348863322287798
aF0.08598274691030383
aF0.008292711409012554
aF0.009271329199691536
aF0.009755032206157921
aF0.07382294156195712
aF0.0569181778228085
aF0.0951065682565968
aF0.07609214268086362
aF0.0771869606578548
aF0.18151146552918362
aF0.2363966741359036
aF0.23034942529557156
aF0.15779146172644687
aF0.06640311709998059
aF0.055298224160651444
aF0.07982954748513293
aF0.1959414891207416
aF0.6204517445767124
aF0.483178730984946
aF0.006105204181949375
aF0.018699638476391556
aF0.4669181964600284
aF0.07374203570725513
aF0.01793333708701539
aF0.027736326610465767
aF0.05350564785840106
aF0.0989438035285275
aF0.006532642128149746
aF0.05113210894705844
aF0.19744476296546054
aF0.06479348621724057
aF0.04764717810394359
aF0.48543935634734225
aF0.0590975470149715
aF0.03764908381344867
aF0.012514107929746388
aF0.2652391455376346
aF0.04082444303276134
aF0.05276499681713176
aF0.05888493724705768
aF0.047641493310948135
aF0.10621815540434909
aF0.07329102971198154
aF0.020617561483959435
aF0.05661815770508838
aF0.04248221211673808
aF0.04805872209908557
aF0.02711407833339763
aF0.09817769744040561
aF0.010415552114864113
aF0.05258122465966153
a.