(lp0
F0.12970317762665218
aF-0.0306962346076034
aF-0.18714703706791624
aF-0.29514326102798805
aF-0.0433993068872951
aF0.14389040792593732
aF0.21911314219323685
aF0.2105304566794075
aF0.3347188970656134
aF0.12335280800471082
aF2.917562931215798
aF0.4969054358662106
aF2.319067054486368
aF3.254018881416414
aF0.45575088734040037
aF2.0649303021491505
aF1.43435100937495
aF2.0180105316103436
aF2.258541760093067
aF3.301820670312736
aF6.546877209584636
aF3.5591722922981717
aF3.9395494470954873
aF6.611834568029735
aF5.577402961498592
aF2.9391356455744244
aF1.7329266192973591
aF4.024434824532364
aF5.019823451584671
aF6.282836468017194
aF9.097014496474003
aF9.40128344023833
aF7.608132966852281
aF8.52908805856714
aF10.246241641289089
aF8.433781740313862
aF6.87853785144398
aF7.162115824467037
aF13.312656794732902
aF7.623476506269071
aF11.71444872070424
aF16.331393745786045
aF15.15829775860766
aF12.569964368885849
aF8.39149023318896
aF12.918253679818008
aF8.691469420737121
aF8.261182074493263
aF15.993618778011296
aF10.481401261931751
aF12.303040136139316
aF17.11978967214236
aF11.633916915452573
aF14.84432501863921
aF17.99466061318526
aF13.76238177443156
aF15.113096860295627
aF13.072143503522966
aF13.190020871406887
aF6.52816266665468
aF9.35626265953033
aF14.222140935307834
aF7.72230339149246
aF15.990259446916752
aF18.63126750016818
aF16.823735748475883
aF12.711097308492754
aF14.143062596267555
aF14.133650091534946
aF8.122330539918039
aF16.166574338058126
aF16.86675536358962
aF19.24574846314499
aF18.456001681333873
aF16.213578534370754
aF16.806823526567314
aF17.036030282324646
aF17.301111690758262
aF13.01425876939902
aF7.422568303591106
aF13.455182329307718
aF14.08676902676234
aF9.22344407910714
aF15.784597088641021
aF17.056810612848494
aF14.332562041527126
aF10.847062309330795
aF9.924705809971783
aF18.595382403291296
aF10.562459206266794
aF14.979193407598359
aF20.023112445196602
aF15.531136206409428
aF19.016332932806108
aF18.633308810240123
aF15.956301958358381
aF17.733969789987896
aF18.59095011750469
aF19.186196987575386
aF13.310503986722324
aF15.478049867342634
aF18.55190460482845
aF17.42039922537515
aF18.199901831394527
aF10.009443423768971
aF16.70182007679614
aF15.16778376797447
aF17.69623513246188
aF17.062318380048964
aF18.498642331978772
aF16.3564782929825
aF16.34953125292668
aF18.421028469747398
aF18.000810992962215
aF16.674302340543363
aF12.66255809838185
aF17.52627682784805
aF18.67492028424749
aF17.6542434367002
aF18.336257104820106
aF17.165350687246246
aF11.615484681969974
aF16.06829035008559
aF12.499721375352237
aF19.639320754504297
aF18.792320302745793
aF16.022733416466508
aF20.373444882279728
aF18.843882483488414
aF18.61396447668085
aF14.795004760453594
aF16.12115619383985
aF18.668054294830654
aF19.38301657239208
aF16.489247650897596
a.