(lp0
F0.048036064676125534
aF0.029793180918204598
aF-0.017469191530835815
aF-0.0036813636106671765
aF0.09215635845612269
aF0.08293134758423548
aF0.06779041685513221
aF0.04676809201191645
aF0.09365356007765513
aF0.08552672753285151
aF0.6046331559336977
aF0.2493599135632394
aF0.4958283383602975
aF0.6676682014222024
aF0.17009583899925929
aF0.5031733293290017
aF0.3418647427315591
aF0.45996350834320765
aF0.5135133642907022
aF0.7138227600808023
aF1.3792811070597963
aF0.8049509305710671
aF0.8429996747727273
aF1.3945218105072854
aF1.1725501794571755
aF0.6389757175202249
aF0.41250381658028346
aF0.8796926517243264
aF1.0529840965027688
aF1.3006483096833108
aF1.8744431172526674
aF1.9141454477066873
aF1.576335050558555
aF1.7654125470871804
aF2.097547628378379
aF1.7537444610352395
aF1.4036482352967141
aF1.484192110990989
aF2.7220154781098245
aF1.5836919326538919
aF2.371595803371747
aF3.2738841552491067
aF3.04283867070626
aF2.55618677327584
aF1.7370942611451028
aF2.5914422054047463
aF1.780828811621177
aF1.7176078338379739
aF3.2288630981202004
aF2.140070058798301
aF2.510112706295331
aF3.481239654516685
aF2.3867074031586526
aF2.9736398238892434
aF3.637741186117637
aF2.822272159552085
aF3.054047681784141
aF2.6422244090790628
aF2.696595289206016
aF1.3260541934723733
aF1.9673373137629824
aF2.9293325919861672
aF1.6050361175293801
aF3.2408023499447154
aF3.7767125148529885
aF3.429409839605796
aF2.594192840551841
aF2.880066968893516
aF2.8960310001129983
aF1.6676978845353005
aF3.38124126540788
aF3.4142104167694924
aF3.8672648448700784
aF3.7446387786621926
aF3.3499148864502786
aF3.4513152618164895
aF3.475969650244224
aF3.469674207663047
aF2.6434310455078958
aF1.547558047270286
aF2.696938458553632
aF2.890992261862266
aF1.9146508950943826
aF3.2747269649262307
aF3.421444274878013
aF2.9694591541046975
aF2.2333920974488137
aF1.99453065583657
aF3.7204750556702493
aF2.12571916768502
aF3.010814610592206
aF4.0141721744294045
aF3.1363476295227883
aF3.830543853735435
aF3.792977430319297
aF3.2461739558930276
aF3.591387130712974
aF3.7338534373993753
aF3.9319573421234963
aF2.747694112753379
aF3.1342200671351748
aF3.7493918914551614
aF3.513380147909629
aF3.673385717367637
aF2.0142375011200784
aF3.354935231109266
aF3.0877288360352395
aF3.5808666724915383
aF3.4337845821137307
aF3.7269497890229104
aF3.3176655207789736
aF3.31682286450814
aF3.7379477996582864
aF3.6591983813996194
aF3.362167694067466
aF2.5682614822144387
aF3.5221718330139993
aF3.7691060085053323
aF3.570358373617637
aF3.731645681356895
aF3.471831980816205
aF2.396062709784019
aF3.2657443065400003
aF2.5513568897004006
aF3.959899045919883
aF3.7874058265442727
aF3.2192824859375833
aF4.130728342031944
aF3.8189795989746926
aF3.756508209204185
aF2.9931651984370546
aF3.2294949073548196
aF3.7876778621430276
aF3.8952752132172463
aF3.2988101024384378
a.