(lp0
F-0.35519092891263426
aF0.12259447641554289
aF-0.007341004238696769
aF0.19652003116789274
aF0.11610403351369314
aF0.35107523828628473
aF-0.36452578686294146
aF0.5629902674991172
aF0.5287325398239773
aF0.2092091336089652
aF0.061505245157604804
aF0.45035923283649026
aF0.5799515211219841
aF0.4656888955469185
aF1.3212096356983238
aF0.2265650444860512
aF0.2562452891106659
aF3.711377237104898
aF0.36058430012417375
aF3.7905806713934
aF4.094388730936771
aF3.457717824840074
aF6.713169407212263
aF8.583595309519296
aF4.149064686262136
aF11.993976201974874
aF11.829884903618222
aF2.9375422411794716
aF11.076855588817125
aF13.574396878593689
aF7.861016396545892
aF8.015607915931469
aF11.911246091240173
aF10.024039562904363
aF12.317507270836359
aF11.689038001113659
aF16.25107213307274
aF13.521089725309139
aF14.37319994356585
aF12.059825457745319
aF15.798965850026434
aF12.752717019375268
aF4.52598452951861
aF14.166759957206523
aF11.232211295628076
aF12.513254605346447
aF12.771557238065725
aF15.503607149348682
aF9.788768556081777
aF15.475862234943634
aF14.221450578534132
aF7.71444823976708
aF12.21196290489388
aF14.794065313526517
aF14.876259867214685
aF15.243387952559715
aF8.059882110501349
aF12.192215941959148
aF12.064284797870641
aF14.556818696783012
a.