(lp0
F0.03805003048910294
aF0.00892585632391274
aF0.1689502929802984
aF0.09873184165917337
aF0.19487822405062616
aF0.00706696673296392
aF0.1380526905413717
aF0.04669352970086038
aF0.03557860502041876
aF0.05585098243318498
aF0.1163644006010145
aF0.08067468157969415
aF0.037624754244461656
aF0.029649373376742005
aF0.006123359547927976
aF0.011868137633427978
aF0.004452739143744111
aF0.10848459950648248
aF0.0616342609282583
aF0.06399697414599359
aF0.03756065400375519
aF0.04188751825131476
aF0.04892048588953912
aF0.02231972641311586
aF0.038975615287199616
aF0.02814116864465177
aF0.035286311293020844
aF0.01761348149739206
aF0.0020885858684778214
aF0.050250940257683396
aF0.04091704158054199
aF0.04183479002676904
aF0.050384569680318236
aF0.057703830068930984
aF0.05343021801672876
aF0.05353713012300432
aF0.04851984581910074
aF0.04773442051373422
aF0.04236413515172899
aF0.043002344435080886
aF0.04429255904688034
aF0.048318792367354035
aF0.04286764585413039
aF0.04172230162657797
aF0.03148153075017035
aF0.05482101463712752
aF0.04077718802727759
aF0.05152835720218718
aF0.045113332802429795
aF0.03222918533720076
aF0.052070888559683226
aF0.04997805482707918
aF0.04531488171778619
aF0.05058051995001733
aF0.04854483506642282
aF0.04967842600308359
aF0.053034495329484344
aF0.0507273671682924
aF0.05168389133177698
aF0.051427062368020415
aF0.0433182726992527
aF0.050962805980816483
aF0.04567912616766989
aF0.04178335168398917
aF0.049274038756266236
aF0.04643467045389116
aF0.0477402622345835
aF0.04564917110837996
aF0.010431003058329225
aF0.042502697790041566
aF0.04934716118441429
aF0.040983557468280196
aF0.04890298820100725
aF0.053814556216821074
aF0.04994431114755571
aF0.04833046696148813
aF0.050111997639760375
aF0.046940516447648406
aF0.050600331043824553
aF0.05099336407147348
aF0.05311217265261803
aF0.047179255867376924
aF0.04669614532031119
aF0.04815426864661276
aF0.0472359883133322
aF0.05475237243808806
aF0.048199944430962205
aF0.04633455374278128
aF0.05156413861550391
aF0.05041525908745825
aF0.05989684058295097
aF0.0523513515945524
aF0.045413717394694686
aF0.05194925866089761
aF0.04659553966484964
aF0.04971875227056444
aF0.04958178079687059
aF0.04755768901668489
aF0.034013051306828856
aF0.045768644427880645
aF0.03127330647839699
aF0.044575665378943086
aF0.021893150871619582
aF0.02791821933351457
aF0.03248328366316855
aF0.037882771575823426
aF0.04367360076867044
aF0.0192826169077307
aF0.044077821308746934
aF0.014685882953926921
aF0.014564864468411542
aF0.01176161109469831
aF0.02453934750519693
aF0.04509362974204123
aF0.045701522612944245
aF0.05260765575803816
aF0.04343891539610922
aF0.038457010174170136
aF0.03274451592005789
aF0.0508128406945616
aF0.05337386099563446
aF0.04917409620247781
aF0.05136347911320627
aF0.051599073922261596
aF0.040458656614646316
aF0.05173199228011072
aF0.050707407062873244
aF0.050359725719317794
aF0.046170215820893645
aF0.04879481322132051
aF0.04834699151979294
aF0.024866673862561584
aF0.05130536458455026
aF0.05643220595084131
aF0.018345668679103255
aF0.054011758184060454
aF0.054221939062699676
aF0.05289242512662895
aF0.042539085960015655
aF0.05160741857253015
aF0.05085316034092102
aF0.053780276561155915
aF0.05041166418232024
aF0.050846807891502976
aF0.04708312847651541
aF0.053072851384058595
aF0.04608738818205893
aF0.04990402259863913
aF0.04567501717247069
aF0.05380614870227873
aF0.05247343970404472
aF0.0452901644166559
aF0.04075280926190317
aF0.05312922201119363
aF0.04736044607125223
aF0.04917018464766443
aF0.04068209952674806
aF0.04619592032395303
aF0.019594023237004876
aF0.04536947957240045
aF0.042895523030892946
aF0.043197006219998
aF0.043928552651777864
aF0.05436157085932791
aF0.05629055597819388
aF0.04421114572323859
aF0.05156454839743674
aF0.046799596631899476
aF0.052861888194456697
aF0.04567119129933417
aF0.047992727588280104
aF0.05185445002280176
aF0.045427251374349
aF0.047314248746261
aF0.04465394071303308
aF0.04997787601314485
aF0.05025383806787431
aF0.04719906277023256
aF0.05242297030054033
aF0.0505377312656492
aF0.047020410318509676
aF0.0430194737855345
aF0.05406519048847258
aF0.046742800856009126
aF0.04491725587286055
aF0.04093100153841078
aF0.04739312850870192
aF0.053184483433142304
aF0.05089729302562773
aF0.05427989759482443
aF0.05260183928476181
aF0.042584378039464355
aF0.05356758437119424
aF0.04066228470765054
aF0.05078787705861032
aF0.05171316466294229
aF0.05291768512688577
aF0.04931308305822313
aF0.04818387678824365
aF0.04974132380448282
aF0.04427856313122902
aF0.044835064793005586
aF0.046792816603556275
aF0.045351688051596284
aF0.04718001582659781
aF0.05059525393880904
aF0.057432774687185884
aF0.05254706763662398
aF0.05001241364516318
aF0.05242314958013594
aF0.050478744189604186
aF0.049024965381249785
aF0.047323006903752685
aF0.04672664008103311
aF0.05128873488865793
aF0.048560857539996505
aF0.047700598603114486
aF0.05355790979228914
aF0.05303492001257837
aF0.05227640247903764
aF0.04975961254967842
aF0.048299316549673676
aF0.046218384290114045
aF0.049535136902704835
aF0.04607431613840163
aF0.04962011822499335
aF0.028394937282428145
aF0.04598050215281546
aF0.05451471754349768
aF0.04624993749894202
aF0.042174576650722884
aF0.03760673082433641
aF0.042722120648249984
aF0.04787829867564142
aF0.04966853908263147
aF0.04523655376397073
aF0.05000006756745279
aF0.051101177698001266
aF0.0491033976431936
aF0.04831749550066888
aF0.004043931272462942
aF0.016825824743136764
aF0.01350000430829823
aF0.04063554876483977
aF0.0446710663381964
aF0.01769082830287516
aF0.03149499394930899
aF0.04798849322833121
aF0.01146964286454022
aF0.02219844632782042
aF0.04710951713786926
aF0.06911779544316232
aF0.05092000565491617
aF0.05037344223819673
aF0.046298779314383864
aF0.050179332261905074
aF0.04836447141133249
aF0.05632916069589555
aF0.04877572483383119
aF0.05141294724307954
aF0.05006434289680328
aF0.05360399535857141
aF0.0499140580650419
aF0.042737666284665465
aF0.048962041502818465
aF0.05166156939230859
aF0.03451476595364511
aF0.04884920991025865
aF0.051625158404931426
aF0.04669985151849687
aF0.04800676531158388
aF0.048180915182456374
aF0.05342909670434892
aF0.055252682184800506
aF0.04843379161320627
aF0.04515319666825235
aF0.05603752261959016
aF0.052779763704165816
aF0.045746944611892104
aF0.05140733323059976
aF0.045131710488931276
aF0.049540657782927155
aF0.05418190383352339
aF0.041105937445536256
aF0.05285958596505225
aF0.05224420526064932
aF0.05422320240177214
aF0.048225838923826814
aF0.047686282778158784
aF0.04809523397125304
aF0.05312786890135612
aF0.05158130428753793
aF0.04889409220777452
aF0.04754518321715295
aF0.04981728992424905
aF0.046816900139674544
aF0.03700529015623033
aF0.051982726668938994
aF0.045486621325835586
aF0.051273602759465575
a.