(lp0
F-0.27430992189692915
aF0.17500649832072668
aF-0.17527776144561358
aF-0.009572527633281425
aF-0.6146961853664834
aF-0.3156124167435337
aF-0.034212156460853294
aF0.16809062726679258
aF-0.24947641722974367
aF0.2773781276482623
aF0.43029918719184934
aF0.1722108238573128
aF0.7657997721071297
aF0.7500806302959973
aF1.8393907548124844
aF0.84995489951325
aF1.024512764179235
aF3.213744577133184
aF8.023907732331281
aF14.234853614234453
aF13.111191135012632
aF11.85706418391419
aF14.969725202881818
aF14.14870402228189
aF16.648503913656896
aF9.503710907065397
aF13.961815595739608
aF17.5733437054987
aF15.15547295950455
aF17.614881288373
aF16.592165468373423
aF16.88149471219731
aF16.905573682506656
aF12.501810755693441
aF14.259832989537244
aF17.860111672544008
aF14.83691271778298
aF15.082741593123501
aF14.80261596303535
aF18.232948225104337
aF15.240584615730768
aF16.27828389790011
aF18.65917135413838
aF16.8040373587246
aF15.618681129180914
aF13.539405934625393
aF14.45747375872088
aF17.969949305170303
aF9.928392622732645
aF18.7344838903482
aF15.025136102103716
aF16.02351085666669
aF17.22752809908343
aF18.302696062364703
aF15.692141525560146
aF17.144331600629812
aF14.823525998854166
aF14.1852871739502
aF17.295751743131405
aF17.38067329313708
a.