(lp0
F-0.8140942168893162
aF1.23151459767314
aF0.2489833863342028
aF-0.37658172623423525
aF-0.6195306308677573
aF-0.5572178863098998
aF0.08144863917323164
aF-0.9939264781883139
aF-0.5556288637330908
aF0.19819608925672583
aF-0.05332889930514284
aF0.596918808657847
aF1.4470752052852731
aF0.07752132638188414
aF0.7114075966069322
aF0.5102083928773027
aF0.37286608516069464
aF0.5569138008991104
aF0.547850774962626
aF1.4543524760642867
aF-0.8310455359628577
aF-0.7506524302175421
aF-0.10616624458862134
aF-0.7498813696315665
aF0.08469769767316393
aF-0.34082892314700075
aF0.6704280953977104
aF0.4451913855859857
aF0.43938552996905855
aF1.3035682685563188
aF0.23685433937998823
aF0.880697099853478
aF0.010234890867195645
aF1.1743037499377351
aF2.2303322054335695
aF0.3676764321403425
aF-0.2563977889826674
aF0.7813321453409117
aF1.4518207780906778
aF-0.5370820403209109
aF0.3231872857077178
aF-0.9528079159667868
aF1.2891393251607042
aF0.6072433948406797
aF-1.2344090916326422
aF0.5075710503274422
aF-0.019470313202418765
aF-0.21365603395906874
aF-0.054786009352483234
aF1.7651841513702493
aF0.897540981311522
aF-0.18661930189637133
aF3.007078031439505
aF1.5738602079341035
aF0.07022621146234087
aF1.8487007267663103
aF1.2444612108060937
aF1.4278354592511278
aF1.1639072237426262
aF1.450495464157484
aF-0.061083985131062946
aF0.6236681625136953
aF-1.4446018912008185
aF1.0079518709221702
aF-0.2548540100565333
aF-0.16641120390204378
aF2.184764864284716
aF1.1931346360483985
aF-0.39817168341187426
aF1.4094798736164194
aF1.6875525753835063
aF1.358712511498652
aF0.39325925557704977
aF1.5376505352446657
aF1.1143655240425687
aF-0.9239293910673041
aF1.434306400258265
aF-0.8350440390518088
aF0.7697873100528341
aF1.4158071720862608
aF0.5075811693905052
aF1.333467783767901
aF2.7046870909521203
aF1.1989327989408594
aF1.8109435172641497
aF1.7757794582553288
aF1.6938593149075132
aF1.6412753336021524
aF1.739453422267161
aF1.127306791383944
aF2.7395404459798556
aF-0.08381112442521044
aF3.5344432391116243
aF0.41822702660056166
aF0.45176803170534185
aF1.8176859341451745
aF2.6127474665531736
aF0.14631149395199827
aF0.8195113114902597
aF1.1474907867500406
aF1.8932337783166986
aF1.5175240956136804
aF1.2207647044101577
aF2.0452523700782876
aF1.0535806886741739
aF1.5778935797402482
aF3.0978798031696897
aF1.4939960189053636
aF0.0583898000309091
aF0.8963726557681184
aF3.834295557242058
aF1.5492798857280832
aF1.6844433829078298
aF2.5700583405682664
aF1.4584729544708352
aF1.2992003284284692
aF2.886691624660216
aF1.2017662291304987
aF0.143687278393827
aF1.3954614572116952
aF2.559359623724049
aF2.4265552036354165
aF3.2074660904595476
aF2.054418819386683
aF3.2295546032378297
aF3.3623199191765707
aF0.17542381807061247
aF-0.33477168584795436
aF4.090896593768321
aF3.943682732422076
aF2.2834620721528154
aF3.5031550101825815
aF0.397404069442473
aF4.475299045805059
aF2.9545460365602594
aF4.8194139547536
aF2.7171914748737436
aF3.7898235492298227
aF2.7823807023355585
aF2.45472502930852
aF1.4440022133180719
aF4.019771302480422
aF3.2090266145655733
aF3.7283312998602014
aF1.1414826013037782
aF1.563437069196425
aF2.308225417871199
aF3.088228227932177
aF4.635851430136881
aF2.9074778877088647
aF4.459969031520359
aF2.2432996801921945
aF2.2926242746302705
aF3.6889194048831087
aF3.757136706624351
aF4.053366603691302
aF3.5239017851540666
aF0.8794345430919748
aF3.8492051515618186
aF1.6832411385962587
aF3.2738834159908947
aF4.182094307977877
aF3.3662719748804193
aF5.97413857503625
aF7.987554064382039
aF5.8905788980314355
aF4.945476549107752
aF3.7689555905649286
aF4.046997102338992
aF3.629212649900637
aF2.352352710802279
aF7.035286212701521
aF4.682312505681239
aF3.0619670174905878
aF3.1633326135465722
aF3.144349875290118
aF4.210962625581942
aF2.383535998303614
aF4.725168766815386
aF4.524667086441241
aF3.596068909753285
aF4.596259110037408
aF3.78065076692792
aF3.9018236569950204
aF4.6979375652858835
aF2.012294577796183
aF5.778379934270106
aF6.4450083397218805
aF6.186283873755656
aF2.579630883772097
aF7.115664603550158
aF4.729920151073657
aF4.712185571331702
aF7.2892166398355585
aF5.295153977710925
aF3.7338745318243127
aF1.5134811870643716
aF1.0997308514902215
aF4.04756811483594
aF5.100494185824118
aF3.0091655539808926
aF7.88235318883153
aF8.18120152725669
aF5.658503296215258
aF7.810191167880021
aF5.693879025418482
aF4.451703950217052
aF4.5301779828855615
aF4.867592527916713
aF-2.185850739479065
aF6.268127086002551
aF4.568257378775797
aF6.17513184471818
aF7.58111012204381
aF3.5192787371465784
aF3.3163797579595666
aF4.786641644675456
aF2.4329572640249353
aF4.821207831043921
aF2.7956577859708887
aF5.856445925671778
aF10.193630606297575
aF-27.908791807271882
aF6.295958059270106
aF5.578737380344592
aF5.086197527487002
aF7.38627878053876
aF6.0547537825891595
aF2.2421657763311487
aF11.052923063177786
aF4.0769653491565805
aF6.335943909723483
aF5.399288209516726
aF6.573362620908938
aF7.715694578726016
aF7.658875482518397
aF4.3064260207006555
aF4.3064260207006555
aF4.3064260207006555
aF4.3064260207006555
aF6.285121338803492
aF6.13414105995389
aF4.24832922442647
aF4.374388228193311
aF11.045652050886474
aF7.872921498853884
aF9.155709715921603
aF11.363067264098845
aF9.02576682193967
aF10.830435427267275
aF6.768143149454318
aF11.906279670436106
aF9.71443911119195
aF8.483772995311938
aF10.037609311182223
aF8.546096627030693
aF8.731295066315852
aF11.537635503698311
aF6.980686458189211
aF6.4545899353811365
aF7.5961045645067315
aF9.169701272983275
aF10.471274154622279
aF7.921240004141055
aF11.369034210581503
aF10.146640176315032
aF7.8689947448560815
aF9.472800353903494
aF5.119823338825427
aF3.9629273116588593
aF8.8318938486168
aF11.963583836693488
aF10.166307846445761
aF10.452921912435613
aF10.452921912435613
aF10.452921912435613
aI0
aF-1.9443323742598295
aF8.527886394103916
aF12.314020293194972
aF9.984310055513106
aF10.786865400511942
aF7.1308836065122705
aF9.551556529838763
aF10.666143121559344
aF7.342031986115671
aF8.62920283400399
aF10.633925097424708
aF11.76442553325387
aF10.476894555974923
aF2.6150589905569177
aF10.602784129221163
aF10.716457339365206
aF12.012469144899569
aF8.257106365997515
aF11.061571920652113
aF12.369832946349106
aF12.314295424509965
aF10.108193727571688
aF10.65292728169652
aF10.747932587180458
aF11.365533890564166
aF9.49326929672452
aF11.729093613464556
aF11.17684780656191
aF10.07766344620677
aF10.199825438101016
aF12.196918521437965
aF11.6274400524685
aF11.280190619070254
aF12.643115194875918
aF9.949524524051867
aF11.392220976192675
aF11.792446235556326
aF11.395970108349047
aF10.562489303190432
aF7.069491120416842
aI0
aF1.038426235318184
aF10.866704257566653
aF10.514996918279849
aF12.324191974837504
aF10.440608831484042
aF11.152133169014178
aF11.684773685772143
aF9.277251037199221
aF10.30497782899829
aF9.823149983444637
aF13.592880824942313
aF12.972286381188951
aF11.47379008157941
aF12.841456695821307
aF13.323751287896357
aF11.00663748605939
aF12.88624846412631
aF12.473307075340472
aF11.499250652630053
aF12.791662635643206
aF12.69071002526971
aF12.114688577491961
aF9.930277439195834
aF13.249656996119938
aF13.389694812137805
aF11.860283213097773
aF12.538946541387759
aF11.94970143063756
aF6.373949321348391
aF11.610265346605502
aF6.2141403280088525
aF11.001500757772646
aF11.508967515908353
aF13.162778439361773
aF10.704688402254305
aF11.966663906712256
aF12.754062945384703
aF9.174393387872897
aF11.273706080753527
aF9.204893382627688
aF12.242486970860682
aF10.254755588609896
aF11.405432122189723
aF13.481428285956554
aF12.923830869037829
aF9.342801766831599
aF12.989818854618989
aF11.525614643830977
aF9.707746925193987
aF8.444862096243924
aF11.695917817194186
aF13.14284474625083
aF11.258104639489375
aF11.286874385912142
aF11.104753585893832
aF11.34211179836484
aF14.233992481965743
aF11.066909106809817
aF9.218089515704833
aF9.218089515704833
aF11.255775699753485
aF11.525202216942034
aF10.422944398958407
aF11.092816563684664
aF11.038921503711663
aF11.65299830063077
aF14.050865536917172
aF12.278720559913836
aF8.909927131969653
aF13.43236182852479
aF13.054275932151995
aF12.81842154486867
aF10.578335496027194
aF12.476328583795748
aF14.9351723216364
aF10.918285223085604
aF12.05769133790227
aF7.491421373922549
aF13.23158723338338
aF12.261134358484469
aF12.495186748344622
aF10.524589987833224
aF4.317369135458193
aF9.27191761358472
aF13.40759727208706
aF12.62531603722664
aF11.385909440357409
aF12.39979949815961
aF12.160661192972384
aF11.018810840685092
aF9.620645521813458
aF12.34923419578763
aF14.056737842399798
aF11.138744922716342
aF10.134989293653689
aF12.499457123119555
aF12.052585007984362
aF10.762608768779955
aF11.85294834001752
aF13.727705600101672
aF8.605486425001345
aF9.814988943178378
aF14.351665103238247
aF10.592862042028628
aF14.049593033630572
aF12.436402412492953
aF13.249469073850833
aF11.365817310650073
aF14.947882751364432
aF14.872775422770701
aF13.695372674044393
aF13.838573666650973
aF14.888210986171089
aF14.652085462946616
aF9.154232712824069
aI0
aI0
aF14.006895097334109
aF13.190575810510836
aF8.700192636240445
aF10.579035254556857
aF13.438511463243685
aF12.306552203733645
aF13.439559536416255
aF12.088731201727114
aF12.835669638950549
aF13.20893028787168
aF12.699198844272814
aF11.883440288145266
aF13.035615878541194
aF12.439625235635958
aF13.45746149345132
aF10.933183907204693
aF12.045687409479342
aF12.260872694093905
aF14.628462922189556
aF13.902951414127074
aF11.315331729490481
aF14.891890744108878
aF12.61465636118146
aF11.3874146066496
aF13.922387557465754
aF12.303368123609744
aF14.676184142369948
aF10.464501874882899
aI0
aF1.4096111804246902
aF14.004321592290125
aF9.14111641271802
aF14.00743481739255
aF13.393462123710833
aF12.064224752027712
aF10.236911448080264
aF13.303852053720675
aF10.914449664194308
aF14.937683791283689
aF10.316024097044192
aF11.392678292829714
aF9.170767935354434
aF14.41975676490756
aF12.111652763921938
aF13.8488788664813
aF12.178450944263659
aF12.72009265645238
aF12.698566289980135
aF14.333346309501849
aF13.810005756456576
aF12.301274212438784
aF14.364954503614626
aF11.719446452696047
aF13.933721902210436
aF9.7598191819975
aF10.52959245665761
aF9.209517091107955
aF13.76553614659997
aF10.121252908757015
aF13.591186078626833
aF11.635059388715945
aF14.592739539582453
aF13.670751499373637
aF13.692568196345292
aF13.09496459587308
aI0
aF13.412639769474026
aF12.639933983225546
aF12.852855520684443
aF12.637072475988589
aF14.212672883074902
aF13.473074557621203
aF14.537452282745562
aF10.977036031324587
aF13.962486992020331
aF13.699962469179354
aF14.13832726924511
aF11.613335376966916
aF8.944796594221316
aF14.734065882291816
aF11.637526424963198
aF13.684407854814253
aF12.398991557199679
aF12.067664983112536
aF10.695527466375552
aF11.904179463524542
aF15.093008010078393
aF14.194214465458117
aF14.090658845741473
aF12.965134801704608
aF13.766249874968253
aF13.411967130739413
aF13.452483984071932
aF13.81364745124074
aF9.929545494157992
aF10.245457264024935
aF15.81670519932004
aF12.264050869875973
aF15.226661796111784
aF14.225807423133574
aF12.80910101755353
aF15.280028218764983
aF13.436623039085589
aF14.070734167833052
aF13.675133446593009
aF13.960832255322657
aF14.162595356244765
aF14.381403597433291
aF14.491406726081095
aF14.193147467810832
aF13.467616523046217
aF12.031266661722384
aF14.76539735718461
aF14.664231660206042
aF14.647398451704703
aF13.882298479218207
aF0.011411393422804395
aF14.286306565627456
aF10.939527051884852
aF15.271615470189772
aF13.765558796364985
aF14.132448407251559
aF15.076702135045252
aF13.794139186281882
aF15.188053762901745
aF14.188456805784426
aF14.641541866947136
aF15.041714045580648
aF14.919659691292964
aF13.869663263101302
aF14.363638209540568
aF14.679273787548937
aF12.012734087545596
aF13.174498947698794
aF14.09400400741788
aF15.196161000419579
aF14.182105781871996
aF9.434294407860762
aF10.380982431013308
aF14.145213971276007
aF14.935021931667052
aF14.865997108061038
aF14.617386022944174
aF13.996781707171522
aF13.194787055615507
aF14.154807527445428
aF14.53511113337072
aF14.04866110103967
aF14.603481451410971
aF12.853699652839623
aF14.064870346699081
aF14.633443039272152
aF12.504246412206612
aF15.107133230555974
aF13.64220918192359
aF7.11024757045152
aF13.449774729449473
aF14.6091747182777
aF13.64848655684682
aF13.36837065442296
aF15.07332856803032
aF13.937829072017394
aF14.509199401725255
aF12.787025655050002
aF13.533339547354899
aF14.030107800278984
aF14.371346002806149
aF15.150099806849084
aF14.02589293698611
aF11.072836341697894
aF14.163113767642699
aF13.001246899727903
aF12.944394844014369
aF14.451161495305769
aF14.642619425792418
aF14.679080332059584
aF15.193687817443333
aF9.115503701054877
aF12.579813255358658
aF14.712652536470614
aF10.916996933881364
aF14.824496070284567
aF14.381607445318423
aF14.554994115967474
aF15.129607199121438
aF14.090029072319794
aF13.884012208216063
aF15.55857272854837
aF14.532099664572797
aF15.04683132319542
aF13.498306395847521
aF14.995075473923407
aF14.472894827265463
aF13.550296379614792
aF13.032195261109791
aF15.295274267334662
aF14.665088700492106
aF14.998372672487221
aF15.47752496822568
aF14.019199917454443
aF14.479346620280467
aF13.788506528724156
aF14.849973082671113
aF15.741887307156048
aF15.105489129562102
aF15.700078388106249
aF15.172899021197281
aF14.906145567435942
aF11.718995916087351
aF14.607415842253886
aF14.69915375615301
aF14.074740773428402
aF15.149768321205102
aF11.102932049323044
aF13.303933688800953
aF14.159563682403586
aF11.275052102644167
aF9.340417804801291
aF14.468494165118955
aF14.01088924183341
aF15.350236567098818
aF15.243385890860282
aF15.981375249464236
aF14.71444659902545
aF15.166759584460578
aF14.438533904392443
aF14.408048810798846
aF15.208055911714382
aF14.113857411209665
aF13.491519196320496
aF13.358235406119547
aF13.565849932272158
aF13.541317481210626
aF12.983017703879796
aI0
aF14.312715875664708
aF12.790409149056359
aF14.888728084404192
aF14.247670481342993
aF15.470803017158232
aF14.969706978079103
aF14.495446170110426
aF15.147634179372744
aF13.337848754961215
aF14.442697586853228
aF14.22819872422906
aF15.243774978805504
aF13.735365393001757
aF13.960830187786542
aF15.85126183031889
aF14.395308578748427
aF13.646936514776371
aF15.3955474499503
aF15.476822732377968
aF15.478852177400313
aF14.850969659526072
aF15.14475916548463
aF15.048918063182555
aF10.296514518154254
aF14.818446720380507
aF14.773508552823387
aF14.543849015969954
aF15.226274701196871
aF10.349372337002478
aF14.633947322506629
aF15.305039463926278
aF14.512185370911084
aF15.084161535266958
aF15.132848183054648
aF15.262510357786141
aF15.045354450483046
aF11.77623626812192
aF15.044519184518776
aF14.981392538536511
aF15.611870848003946
aF14.04545397533866
aF14.53530629201623
aF15.573749011743985
aF11.494066669035874
aF14.228584515292368
aF12.355904330395333
aF15.92760656996461
aF16.026711948577486
aF15.105256764579735
aF13.846516600240193
aF14.517686711985789
aF14.843887307577006
aF14.831352411199532
aF14.585235501069747
aF14.814540273871444
aF14.888520511228762
aF14.722980927106164
aF14.185335385043345
aF12.887043925363741
aF14.726249417651616
aF14.480566010240636
aF15.062843899138443
aF14.27029625548812
aF9.166005096071785
aF9.939173134405337
aF14.49957444950769
aF13.705475551903419
aF13.294571312505923
aF-1.5280473232269287
aF15.237547438953243
aF14.184530089039527
aF10.38101789577695
aF15.522320466477595
aF14.281417446106843
aF14.938971056033097
aF14.22882761842402
aF15.029110843677245
aF14.645696776349268
aF12.637445195032342
aF14.595750468213282
aF14.705921160418711
aF14.086672822375021
aF14.417689694453202
aF15.676568970445715
aF14.072062289703808
aF14.755704428896479
aF15.381933274109088
aF9.686016040284358
aF14.568613227818332
aF14.12463129534217
aF14.177765371639452
aF14.960138043750248
aF13.771101991076193
aF13.52009867354127
aF15.134951034922324
aF13.759931540478192
aF15.072716763604603
aF13.82955254091712
aF14.874687927147079
aF15.066936584551058
aF15.001161704201422
aF10.600031288702212
aF14.285058966268025
aF12.737577641987627
aF12.35696830822917
aF14.131592223782263
aF15.198524576042018
aF13.465534197528086
aF14.601151124004446
aF12.006033035356722
aF14.938681545097552
aF14.238928184274755
aF14.691442875553093
aF13.248642804462634
aF13.638454871613703
aF15.081138285238467
aF14.548673676688395
aF12.79831414147111
aF13.392056702066384
aF13.160243435193024
aF13.290404351789675
aF10.414840551454745
aF14.698489802319727
aF14.053070368606768
aF14.457388418156825
aF13.764756890375338
aF9.06173226459714
aF14.222169788915835
aF15.070133554179392
aF13.85460616125556
aF15.434761713620446
aF15.378360208485446
aF15.964119723428212
aF12.213177355367861
aF7.5232935421058755
aF10.941824396502398
aF13.67040042801591
aF12.784127379197798
aF13.904687380779706
aF13.80622712000104
aF14.68050667120906
aF12.857015403349124
aF12.642848585162483
aF10.394788152211731
aF14.503767537314616
aF11.69549462421628
aI0
aF2.5250936299562454
aF13.255535187561236
aF14.008451225597582
aF14.924980784196578
aF12.809994751949034
aF14.345893459756098
aF13.119584890444003
aF14.553217413265429
aF7.464913512010298
aF14.059435306478463
aF13.919418948132716
aF14.205062250036917
aF11.599497096974574
aF15.040936554212294
aF14.665329242486678
aF13.67084242206829
aF14.339687833924017
aF14.922437044222079
aF14.324426427845083
aF14.927734928567133
aF14.436464989919386
aF13.926608572144232
aF14.424442695815287
aF14.770644577581606
aF14.360321825731717
aF13.304978097219191
aF13.88613161667081
aF15.091896085430108
aF14.297485547501765
aF14.724844852823935
aF15.199694494147025
aF13.438377296913586
aF14.856132390339098
aF14.164421642560683
aF13.357366132911466
aF-4.223679029382765
aF13.905137600738726
aF10.671819396752653
aF13.849208997924052
aF14.256321927894078
aF13.699952634412966
aF13.928838996578179
aF15.266679795820437
aF13.38003573044034
aF14.113076883729718
aF14.414474266011439
aF13.701577457029543
aF14.134313026804648
aF13.738564770098947
aF13.843557061989031
aF13.963001789886675
aF12.462244229752741
aF-0.3192339092493057
aF14.65087716503831
aF13.770753043133936
aF14.449125966418706
aF13.554203873861752
aF14.904732304055415
aF14.958431003976784
aF13.638966000069104
aF10.901649268705569
aF15.048996052134953
aF14.181265766162596
aF13.516163174424491
aF12.478371234972201
aF13.136258763622664
aF14.486073740188203
aF12.93326887338253
aF0.1573175098747015
aF13.925576424587689
aF15.26407915203663
aF14.57072065247985
aF14.987314553070519
aF14.681496015180073
aF14.017394604522906
aF13.519104449439965
aF14.530120762426577
aF7.895929879828145
aF12.063367376465521
aF4.673909591872416
aF10.765927704412661
aF15.154664172221146
aF14.504640763987027
aF13.830280499894343
aF12.968873056013308
aF14.070789488393984
aF14.256501170236788
aF13.870658101875506
aF13.218494775135241
aF13.856801381696187
aF14.073395887751303
aF11.728379028279505
aF12.849880652863703
aF13.922218019504271
aF14.167112717766486
aF14.34826211108657
aF12.917252900440417
aF11.559479879576884
aF14.138132883597336
aF13.667013096053324
aF14.334552511934362
aF14.722459363181315
aF14.005982289452277
aF13.693825165171347
aF11.384233208734713
aF13.392920466501437
aF14.091773340840064
aF12.797572138149462
aF14.69002710691484
aF13.460836895171724
aF14.471316011984072
aF16.01993289812299
aF12.938493015606127
aF12.325012656290255
aF14.058876829583369
aF13.26297153754922
aF14.275000291306696
aF8.276693166603764
aF12.005631151039324
aF11.30039808376523
aF11.568804057676516
aF12.431692602474413
aF12.524541588861666
aF14.360161917645655
aF11.257071616489611
aF10.863729687769137
aF12.979192706186495
aF12.683282019931994
aF14.177527996141635
aF10.920173498232089
aF13.20697085036727
aF13.20697085036727
aI0
aF11.47005495651456
aF12.541313143808566
aF13.72964073940011
aF12.262158068258486
aF9.397745104868136
aF8.166395100195132
aF12.76886762155982
aF14.212754089746795
aF13.859518170718275
aF13.471329110104762
aF12.859806577105246
aF13.815164612967692
aF14.375922233227811
aF13.169637890894137
aF11.729514347750865
aF11.404871615011416
aF13.783756541449748
aF11.331963511545382
aF-1.7880899459123611
aF13.674755748722873
aF13.750712322432719
aF14.253409589070998
aF11.308225365717135
aF13.494424922753296
aF9.867413016397677
aF13.221033038933001
aF5.79366448395831
aF9.628009768564425
aF12.94939425810071
aF8.093259306986056
aF11.321782740194521
aF9.681952270109377
aF4.9363210521528345
aF7.78483686073514
aF11.432248922426425
aF7.033386500913821
aF5.470066341001711
aF10.091386707861147
aF6.21183482034894
aF9.284144612390719
aF6.425030203897677
aF12.69708615763875
aF8.369101556379519
aF6.811387809354983
aF9.967507692415438
aF10.225955369312487
aF13.236327292759142
aF14.803986824479125
aF8.44641414507123
aF6.061954172689639
aF10.916418703634463
aF7.42965606077405
aF9.60427177174779
aF8.861347409326754
aF-2.766435742378235
aF4.093025001127444
aF10.51643219812604
aF12.72624922021123
aF0.8631536088773828
aF8.467630120355807
aF2.4825408778974634
aF14.103149688232861
aF8.005364807684145
aF9.288127990801058
aF11.145808073122225
aF13.636637078959666
a.