(lp0
F0.002304153749719262
aF0.03902515003574081
aF0.04396416267263703
aF0.020313234796049073
aF0.03150969764101319
aF0.07062262648832984
aF0.02930896749603562
aF0.05615381171810441
aF0.11818910037982278
aF0.07165185009944253
aF0.05798020979273133
aF0.10429976528394036
aF0.12900000417721458
aF0.0968129450629931
aF0.04952391629922204
aF0.062174916063668206
aF0.02833897268283181
aF0.034220382367493585
aF0.057233389670727775
aF0.156403351778863
aF0.2140895465563517
aF0.10771204729098827
aF0.10909903401625343
aF0.06205818077432923
aF0.04551787322270684
aF0.02377753352629952
aF0.026251684670569375
aF0.008180886710761115
aF0.13559045290458016
aF0.014344814961077645
aF0.11954325830447488
aF0.06286397928488441
aF0.21055806076037697
aF0.030293620919110253
aF0.028675338049652055
aF0.12025251591694541
aF0.14530038440716453
aF0.03331509625422768
aF0.028058957104803994
aF0.0966106990526896
aF0.07028489536605775
aF0.07417291009915061
aF0.010340705717680976
aF0.10414377992856316
aF0.024549089575884864
aF0.04556566124665551
aF0.013011474366066977
aF0.12664873505127616
aF0.022797524725319818
aF0.010030737874330953
aF0.014029275422217324
aF0.01108153144014068
aF0.007659184018848464
aF0.07886904830229469
aF0.09575003778445534
aF0.042217165435431525
aF0.035055957530857995
aF0.19003814065945335
aF0.15238989496720023
aF0.1352312008093577
aF0.16890001689898781
aF0.04861521327984519
aF0.005672102066455409
aF0.09920380616676994
aF0.06103936189902015
aF0.005674495158018544
aF0.03638415431487374
aF0.04090526720392518
aF0.03887370994198136
aF0.2387680223037023
aF0.1836848745297175
aF0.08803682422148995
aF0.11106097346055321
aF0.012163738516392186
aF0.03838644569623284
aF0.006457703449996188
aF0.09041777646052651
aF0.0363999867986422
aF0.022016301547409967
aF0.030269946699263528
aF0.006487438688054681
aF0.1171373913239222
aF0.02403461912763305
aF0.08886579817044549
aF0.016268929262878373
aF0.06418918425333686
aF0.07621147835743614
aF0.037568226660368964
aF0.10417785102617927
aF0.03055498728645034
aF0.0527171527792234
aF0.1617019584227819
aF0.02571924982476048
aF0.02069374339771457
aF0.003047705191420391
aF0.055712472851155326
aF0.008629474992631003
aF0.04253587519633584
aF0.0018157797458115965
aF0.0897406080912333
aF0.12649327123654075
aF0.06788771951687522
aF0.041993696038844064
aF0.02400663515436463
aF0.17760856056702323
aF0.009255822544218972
aF0.05038169791805558
aF0.03292604556190781
aF0.05312813425553031
aF0.032361686433432624
aF0.10961004698765464
aF0.1239803621720057
aF0.05045700052869506
aF0.06469449793803506
aF0.033762317354558036
aF0.08407724255812354
aF0.0044888083066325635
aF0.12672140801441856
aF0.0354582441796083
aF0.047290742193581536
aF0.1518875586334616
aF0.1963249335240107
aF0.11759399974835105
aF0.06422169899451546
aF0.05259984752046876
aF0.05581865811836906
aF0.04208543131244369
aF0.04664780179155059
aF0.0871146435092669
aF0.02589434923720546
aF0.019154088775394484
aF0.09435203278553672
aF0.2622351160098333
aF0.01976649442804046
aF0.01556428728508763
aF0.17264075184357353
aF0.01743693629396148
aF0.09582835788023658
aF0.047282777522923425
aF0.0540478715847712
aF0.05880795026314445
aF0.007471328863175586
aF0.03298542255652137
aF0.02467897327733226
aF0.03428940082085319
aF0.06904158348334022
aF0.12366666251909919
aF0.04445660093915649
aF0.15738724565017037
aF0.09380850588786416
aF0.06128008270752616
aF0.05221229771268554
aF0.03224149325978942
aF0.0688837280322332
aF0.10919461751473136
aF0.11878039294970222
aF0.10432836020481773
aF0.07404596710694022
aF0.05232003683340736
aF0.10597948377835564
aF0.11627551936544478
aF0.05644842961919494
aF0.03969424983370118
aF0.06836551034939475
aF0.08339308554423042
aF0.08083402717602439
aF0.057941038365243
aF0.007501276471884921
aF0.046255379711510614
aF0.043342571501852944
aF0.10846602523815818
aF0.034698818082688376
aF0.05762105042231269
aF0.013496546278474852
aF0.05086036378634162
aF0.04897387677920051
aF0.04533315057051368
aF0.08204546177876182
aF0.09751933420193382
aF0.04556036347639747
aF0.1611368765879888
aF0.07818368429434486
aF0.1505635490466375
aF0.039310131018282846
aF0.03382047658669762
aF0.1856158783484716
aF0.065159108286025
aF0.09399913603556342
aF0.008036770654143766
aF0.06811809146893211
aF0.05880990976584144
aF0.0009894035465549678
aF0.04101864973199554
aF0.048236716334940866
aF0.08695120716583915
aF0.11511703228461556
aF0.05763825008762069
aF0.04016145711648278
aF0.09898511713254265
aF0.0653460880566854
aF0.041641309624537826
aF0.11701729500782676
aF0.08897035921108909
aF0.14945821856963448
aF0.05004051679861732
aF0.05667055750382133
aF0.022907912934897467
aF0.09970844144118018
aF0.22480743026244454
aF0.0006951202813070267
aF0.04373582432162948
aF0.04144827648997307
aF0.009622080047847703
aF0.06037337685120292
aF0.24979468787205406
aF0.058142472262261435
aF0.11893149072420783
aF0.04918503761291504
aF0.08198486620676704
aF0.0603410380135756
aF0.015512468089582399
aF0.04134588295710273
aF0.06089190745842643
aF0.05176659653079696
aF0.053597759251715615
aF0.05779883245122619
aF0.047055755014298484
aF0.10825694000232033
aF0.010645391215803102
aF0.03152574991690926
aF0.05707780664670281
aF0.049483455513836816
aF0.017595999146578833
aF0.08781115358578973
aF0.2176896294404287
aF0.09410492723691277
aF0.08466340208542533
aF0.05930278470623307
aF0.186614226346137
aF0.12877596521866508
aF0.048464774852618575
aF0.1355728765774984
aF0.05103887224686332
aF0.0753820201207418
aF0.06384893154609017
aF0.03155387213337235
aF0.10458552485215478
aF0.03941038603079505
aF0.10034772360813804
aF0.05679176023113541
aF0.18725214505684562
aF0.0948534419585485
aF0.0017431739543098956
aF0.007215787860332057
aF0.22725002074730583
aF0.2673231174994726
aF0.13001751506817527
aF0.04569618424284272
aF0.022127600183011964
aF0.24224079752457328
aF0.13824469948303886
aF0.07514018917572685
aF0.05439108589780517
aF0.14855390394222923
aF0.17159347629058175
aF0.14493363702786155
aF0.08712858313811012
aF0.07157950455439277
aF0.0735063886095304
aF0.1573812922288198
aF0.06726897860062309
aF0.12405783290159889
aF0.04055975770461373
aF0.0769803261209745
aF0.0067727269779425114
aF0.04990695769083686
aF0.03510041141998954
aF0.05037279034149833
aF0.06593583876383491
aF0.07858694696915336
aF0.0023938145022839308
aF0.030781485344050452
aF0.10156679505598731
aF0.25502119565499015
aF0.03444633653271012
aF0.08254306370508857
aF0.11987235749256797
aF0.07454043978941627
aF0.07240350896609016
aF0.06068506816518493
aF0.05296911651385017
aF0.10444508100044914
aF0.023522784729721025
aF0.01336308495956473
aF0.01779580654692836
aF0.05541481470572762
aF0.10687467062962241
aF0.00042850519821513444
aF0.026130020414711908
aF0.057952862029196694
aF0.0692092364479322
aF0.10652514194953255
aF0.11239995414507575
aF0.003611041436670348
aF0.060392308776499704
aF0.04298463070881553
aF0.11490200067055412
aF0.13533313179505058
aF0.30132795477402397
aF0.10270595157635398
aF0.2460610380221624
aF0.042383279447676614
aF0.10727495307219215
aF0.019582629000069574
aF0.06590789908659644
aF0.12378032857668586
aF0.31643907332909293
aF0.008829200844047591
aF0.08144840950262733
aF0.05584304386866279
aF0.05361452675424516
aF0.07415242845308967
aF0.05260879153502174
aF0.07458164150011726
aF0.0625627076078672
aF0.011082228476880118
aF0.10612400973332115
aF0.08892211670172401
aF0.04086250046384521
aF0.11971034461748786
aF0.044744532759068534
aF0.04609838480246253
aF0.0684591794561129
aF0.0220314783800859
aF0.03504310196149163
aF0.070436794514535
aF0.005776178761152551
aF0.04529284665477462
aF0.019978536089183763
aF0.04815505424630828
aF0.11755384856951423
aF0.13466174507630058
aF0.0006089486123528332
aF0.059510830586077645
aF0.08072781169903465
aF0.02916560528683476
aF0.06840943938004784
aF0.07161508852732368
aF0.08023716116440482
aF0.8741587212134618
aF0.10487908477080055
aF0.07421661520493217
aF0.054325800185324624
aF0.0070663045917171985
aF0.091488513891818
aF0.010597428103210405
aF0.012320345063926652
aF0.06069986874354072
aF0.09777289981138892
aF0.02820997333037667
aF0.07962428010068834
aF0.054010499065043405
aF0.01731543635833077
aF0.041726156865479425
aF0.02893066013348289
aF0.05208366343867965
aF0.025127861445071176
aF0.0350678188551683
aF0.08359247838961892
aF0.16177524233353324
aF0.06258866543066688
aF0.04404840970528312
aF0.06467189246905036
aF0.006960290222195908
aF0.0018808221502695233
aF0.11883333476725966
aF0.8895700981665868
aF0.034167066420195624
aF0.05075087377917953
aF0.012350278702797368
aF0.020662402937887236
aF0.04725905114901252
aF0.031980395113350824
aF0.09941865855944343
aF0.07966166341793723
aF0.07525164241087623
aF0.04631438085925765
aF0.039665993506787345
aF0.044266018812777475
aF0.04928684586775489
aF0.047127712721703574
aF0.04833790267002769
aF0.022491565177915618
aF0.03855587894213386
aF0.012158539873780683
aF0.07157719487440772
aF0.07079364711535163
aF0.07556862031924538
aF0.009356337395729497
aF0.11622552221524529
aF0.04242209321819246
aF0.0398689990688581
aF0.05714628080022521
aF0.016507373919012025
aF0.06532908583176322
aF0.02485140020144172
aF0.013459274749038741
aF0.040222655778052285
aF0.07257821763050742
aF0.06694746410357766
aF0.00951141698169522
aF0.05361366624129005
aF0.02582670355332084
aF0.06561351215350442
aF0.04083517545950599
aF0.058318119699833915
aF0.14019731784355827
aF0.002965044026495889
aF0.034301955049159005
aF0.06425236517679878
aF0.011447289754869416
aF0.061968825553776696
aF0.038099262659670785
aF0.14860735440743156
aF0.029011987353442237
aF0.0849482973862905
aF0.1152350565243978
aF0.04384997094166465
aF0.08911609256756492
aF0.03802930915844627
aF0.12379005158436485
aF0.010965170542476699
aF0.004488608130486682
aF0.05978630090248771
aF0.0033017540990840644
aF0.05257900452124886
aF0.10261414552223869
aF0.06740290278685279
aF0.05154630893957801
aF0.06241509670508094
aF0.03479036292992532
aF0.07385360801708885
aF0.11834959292900749
aF0.0841630881477613
aF0.02130065837991424
aF0.05957666804897599
aF0.01008274985360913
aF0.049849454109789804
aF0.02725623713922687
aF0.0502813721250277
aF0.045508533919928595
aF0.06920000517857261
aF0.06920000517857261
aF0.0
aF0.08922448361408897
aF0.021533554216148332
aF0.06933296078932472
aF0.06550815308582969
aF0.05358338708174415
aF0.003759680053917691
aF0.045076601003529504
aF0.024002715741517022
aF0.004437378869624808
aF0.05123078802716918
aF0.03707313144695945
aF0.058604143356205896
aF0.014131765608908609
aF0.026531165261985734
aF0.017482757772086188
aF0.08783420527470298
aF0.11075514162075706
aF0.07554159706342034
aF0.102059241180541
aF0.047312378679635
aF0.000542002177098766
aF0.0310405844647903
aF0.06364495659363456
aF0.007200388907222077
aF0.006517273170175031
aF0.034040737693430856
aF0.027012076025130227
aF0.02080539966118522
aF0.011185985757037997
aF0.07247668856871314
aF0.05316229889285751
aF0.05490675588953309
aF0.0020488321024458855
aF0.023963229526998475
aF0.04341990148532204
aF0.027577452157856897
aF0.014105700684012845
aF0.05381686592590995
aF0.008452166599454358
aF0.013896913063945249
aF0.055277671868680045
aF0.021237654407741502
aF0.05198780799400993
aF0.32401032352936454
aF0.08684075230848975
aF0.0250288599927444
aF0.07098456079256721
aF0.1309799810696859
a.