(lp0
F0.06450333825705457
aF0.08226206945255399
aF0.022944421973079443
aF0.03605970786884427
aF0.05717145698145032
aF0.01861589541658759
aF0.08524613035842776
aF0.05876097409054637
aF0.1413622642867267
aF0.027774179819971323
aF0.08305623747946811
aF0.07538719109652448
aF0.03588496155498433
aF0.0378853828406136
aF0.04720385379550862
aF0.049032624880055664
aF0.05399534485695767
aF0.05684729672429967
aF0.16012617566229892
aF0.5545790753567417
aF0.0685136356150906
aF0.583031710168143
aF0.3864595554077823
aF0.04897375039217877
aF0.3964952490532596
aF0.04665475718138623
aF0.4528626761639316
aF0.01721849299428868
aF0.3422751984799106
aF0.03458829976079869
aF0.044496037135104416
aF0.2442077138221066
aF0.034089606186171295
aF0.031680058757046936
aF0.11075504503605771
aF0.07280727855322766
aF0.029698606511374237
aF0.04322091869471478
aF0.0009188387666654307
aF0.052283492008427856
aF0.08843671164868283
aF0.08858698985932278
aF0.06906557462571072
aF0.0682927706038754
aF0.13097670294882846
aF0.04699989787695813
aF0.07278032980320859
aF0.09754706539752078
aF0.046293236384371994
aF0.3844323792254727
aF0.07502757392285275
aF0.058367971400002716
aF0.07575367011668277
aF0.13116361580250668
aF0.03993461660502362
aF0.039489421924372436
aF0.061205599526147125
aF0.10560731224177289
aF0.034266986021975754
aF0.10414731881974149
a.