(lp0
F0.6000770616810769
aF0.24479016559780575
aF0.3949017393460963
aF1.2176402275508735
aF-0.1503733741992619
aF-0.5943548875802662
aF0.20795730772078969
aF0.19930248978198506
aF-0.04687465829192661
aF0.4736797547957394
aF0.8489430499321315
aF0.35344265299499966
aF-0.2170167314761784
aF0.7290763397759292
aF-0.6039759713166859
aF0.3950203386193607
aF-0.5248327004665043
aF0.4157590297108982
aF0.6027312007790897
aF1.009379680181155
aF0.6975566725304816
aF0.8757163760310505
aF-0.23467360166250728
aF0.05441184985102154
aF0.26625445010722615
aF-0.0028832639509346336
aF0.043760388070950285
aF0.11348916115821339
aF0.10105406763614155
aF0.7241332800185774
aF1.1221556169039104
aF-0.280224197631469
aF0.4873463873809669
aF-0.3947309601062443
aF0.7225296170508955
aF-0.10178975862800144
aF-0.22971583632170223
aF-0.22449465570389293
aF-0.0705383914464619
aF-0.3772771554940846
aF-0.13424592441879213
aF0.5077789341157768
aF0.6249952119833324
aF1.8506535411870573
aF0.3248317762336228
aF0.6010657212755177
aF1.5941677511727903
aF1.1679609901329968
aF1.6236479942745063
aF0.7215795213414822
aF2.4668621820455883
aF0.837727951729903
aF1.6070841056352947
aF0.7000845404400025
aF0.8309847571945284
aF0.9096619616320822
aF-0.006047991191735491
aF0.6161879179126117
aF-0.18215553936897777
aF0.31398711624206044
aF0.5209157233184669
aF1.0122982402390335
aF0.29863819378078915
aF1.9521380857622717
aF0.5164416860498022
aF0.5877522927767131
aF-0.6586010205501225
aF0.6958024071354885
aF0.30114887180388905
aF0.3775729973858688
aF0.5490117882436607
aF1.2558433962112758
aF0.6360410423076246
aF-0.2984582456701901
aF1.2561291632300708
aF0.31642483445466496
aF-0.4134099009388592
aF0.39125106661231257
aF-0.5032754885905888
aF1.0398736027127597
aF0.8875102928141132
aF0.7454714168852661
aF1.8066378067305777
aF-0.04307274633902125
aF0.7797813684737775
aF3.545884544873843
aF2.7049445536977146
aF2.649509388866136
aF0.9024708521610592
aF1.7701137987023685
aF0.9473743465787265
aF1.6653077061346266
aF1.1741167669242714
aF1.4179897484427784
aF1.8765038427955005
aF1.803129854524741
aF1.1402659107989166
aF-0.32302694497047924
aF0.9242952977365348
aF0.6343727734929416
aF0.32397888498962857
aF0.8781730932241771
aF3.3295420547074173
aF1.8459412259107921
aF0.11035865070880391
aF1.1918134045845363
aF0.670433434570441
aF2.4161501218623016
aF2.073894998902688
aF1.9374098991102073
aF0.5269492779916618
aF1.673044728959212
aF1.007250863040099
aF1.6485715833550785
aF1.4592990082746837
aF3.057880987325916
aF1.896309981966624
aF0.3205543001240585
aF2.4629715261107776
aF2.1617759195214603
aF2.568409175146371
aF2.9657679599768016
aF4.589123072946677
aF1.8348403078562114
aF2.2715997126942966
aF0.5790076953417156
aF2.330656162375817
aF3.287080692971358
aF3.0128722441440914
aF2.8898451280838344
aF1.296031976962695
aF3.7653900859004352
aF2.831337208772311
aF2.9189889309054706
aF2.4698604563309345
aF5.050250672647962
aF0.8167633962875698
aF1.9966518682485912
aF2.035211603069911
aF2.803270648146281
aF1.264741736376891
aF3.407640139485011
aF1.4857503947860096
aF4.409497733140597
aF1.2991275814420078
aF2.1047489148622844
aF4.794839968817541
aF3.1804975542763714
aF2.6130751696473453
aF3.510989583010087
aF2.7633563977724407
aF4.041946298821131
aF1.621361243451247
aF4.998191603372106
aF3.036327640438685
aF5.418694744730601
aF2.551215122366557
aF1.3437763405090664
aF-3.0407941537851
aF2.5500848692900036
aF3.5585026821354404
aF3.110717235977063
aF3.222109767521033
aF1.8171771791821811
aF5.325006338680396
aF3.858900050545344
aF2.9244628724700306
aF3.04812675472931
aF3.7678573829180095
aF4.335361084813485
aF4.23858772861422
aF5.510933500627289
aF4.732387530530104
aF5.324788395228097
aF2.529330364341149
aF1.519863883877406
aF6.453885975206504
aF7.58796123220236
aF1.8378806662803981
aF6.397258978249738
aF5.010238470422337
aF4.900614823127398
aF4.100512786681065
aF6.666109231446171
aF3.753028268838534
aF2.951873931015143
aF4.359344019467244
aF5.350198660889873
aF7.119061964476714
aF2.1577214253193233
aF5.181306534359464
aF5.842162462795386
aF4.975338884541998
aF3.679946743795881
aF5.690722706640372
aF2.0466854971891735
aF5.6875997212773655
aF2.9006825749820564
aF6.59620237434865
aF3.351839444512734
aF6.345823666779324
aF6.480207498098025
aF5.189616585994372
aF5.30411664294661
aF5.99844796481193
aF4.298416207457194
aF4.839474916370818
aF5.015189274126897
aF6.48237511413754
aF5.633761919016251
aF4.025434589857468
aF4.798017683351645
aF5.792694817209849
aF6.960277500475058
aF6.133666647510836
aF8.386242521373788
aF7.0393853438145015
aF5.870865843171487
aF2.9537313607579563
aF8.093767966056475
aF7.421972601587186
aF5.23952284725965
aF2.6399889391905162
aF6.318827624345431
aF2.9485264224058483
aF5.784540007734904
aF7.005187625909457
aF4.786863884801278
aF3.526198509061942
aF6.651931720698485
aF4.18939676033915
aF3.8805685740953777
aF4.453062525863061
aF5.380909674713621
aF4.577235150063643
aF5.383340175176272
aF6.504833261860767
aF2.0686391544586513
aF8.465347018936882
aF5.267100798810134
aF4.121265587164089
aF7.604003920132527
aF6.174909899855265
aF8.191672581160674
aF7.85164805027307
aF5.261749456549296
aF5.813552643085131
aF9.427976458246121
aF4.800448398018489
aF8.5383238819486
aF8.065539616072783
aF2.156506757164607
aF8.025156379590044
aF6.253338753158459
aF8.096896110946545
aF8.37069289656938
aF6.742423566902289
aF4.21328009935678
aF5.869332904840121
aF6.773659269238124
aF8.744937888259301
aF5.795909407461295
aF1.7013668072468136
aF6.8847328786796425
aF6.480190026486525
aF8.284391331399092
aF5.02554707127274
aF7.375522515649209
aF8.003799113357672
aF7.80770260738791
aF8.382481223816285
aF4.885686728084693
aF8.236908930266509
aF7.228010598482797
aF5.202499831939349
aF6.890581335319439
aF9.173836821137229
aF-0.08967490968643688
aF3.6218960014230106
aF8.088376409286866
aF4.41238912724657
aF10.315488072956214
aF7.323138656938681
aF4.847535843873629
aF8.694461489940295
aF6.44127411665977
aF5.434787634439999
aF10.681153169280151
aF0.6680428040272091
aF9.540074373508105
aF9.772819670761237
aF4.661347250366816
aF8.235596668819198
aF9.697829511860618
aF4.2024835002666805
aF8.43769090148271
aF10.529670257965336
aF8.511494918639073
aF10.359079948539147
aF8.999997208738932
aF6.276733743870864
aF8.468684571707854
aF9.370153601194033
aF7.668797447258839
aF4.750064237887273
aF8.657416905189166
aF5.482163828710327
aF6.248406375671038
aF7.396554051811108
aF6.121771613979945
aF7.96652182834805
aF9.206022842699895
aF9.05264193090261
aF4.477067830885062
aF8.039551935071358
aF6.4017618251091335
aF8.748757894063601
aF9.2080240220821
aF8.906667324627051
aF8.704999539913842
aF6.109890176157933
aF8.999287764454493
aF8.835781085217604
aF9.81193875792087
aF8.771604056382785
aF-4.759764336049557
aF6.161912939423928
aF5.552513058210025
aF4.614081959152827
aF8.073526154184947
aF11.244303750718245
aF5.225350613618502
aF7.0634895366674755
aF8.966408948326716
aF7.913085053587565
aF8.061262524133781
aF9.530162195587764
aF7.7787852090841625
aF9.990525128232548
aF11.033958139742026
aF11.138616165990243
aF8.249829503620276
aF10.069271492684493
aF8.419299553061137
aF8.445638361299643
aF5.723041499877581
aF6.988885271275649
aF10.057365688408026
aF8.860889430070529
aF10.06277190419496
aF8.403079484269256
aF8.101041669870028
aF9.618206526065478
aF9.497172633564333
aF11.002517322922358
aF11.023832204664359
aF8.686191643500933
aF11.367551366711268
aF6.382619942451129
aF6.215638722205767
aF4.8691128741484135
aF9.784031118178973
aF11.14383419873775
aF8.164625371719012
aF8.419605450617382
aF9.634670968080172
aF10.354542936111102
aF-5.048862770199776
aF8.21968866410316
aF10.142494122410426
aF9.158603231335292
aF9.913795347238192
aF8.794721494341502
aF7.026690597558627
aF10.112502182746539
aF12.166877853596816
aF9.115897434676299
aF8.189866569737205
aF11.520945410156855
aF10.951415802264819
aF9.26104804399074
aF10.802851672196994
aF12.031584585929522
aF9.19278701665462
aF11.247327997261891
aF9.47008846225799
aF6.345730106258998
aF9.080584364855895
aF11.086479019286344
aF7.484768032009015
aF5.9133944650238845
aF4.834345820272574
aF9.714997651899466
aF11.420217323029647
aF9.76888725432218
aF10.0459196967131
aF10.059136207128176
aF10.377856547856936
aF8.91039406778873
aF9.177166110748658
aF4.470711464236956
aF11.249806861305842
aF10.809086727822432
aF7.531007955694804
aF9.632820020342479
aF10.376150960946688
aF12.566284529311815
aF10.94055568697513
aF7.956229894334683
aF12.850651572371135
aF10.024042854929576
aF8.296997602010379
aF7.073654829437146
aF11.966876665974269
aF6.049782427871833
aF10.868583152914653
aF10.39621807532967
aF12.209438838908682
aF8.696893508458743
aF12.206422271119663
aF9.034449438477168
aF12.652490864420542
aF10.74793970110477
aF11.350375319743762
aF13.281086365605006
aF9.771427865052829
aF12.203748057509074
aF10.476611013436923
aF9.67397695305408
aF6.431359256530413
aF10.98869269611896
aF12.413036542857299
aF10.956673937762389
aF10.724578666413436
aF6.229986454272876
aF9.218119437718997
aF9.998912456358084
aF9.401528592134127
aF7.624988033348927
aF11.222615296865115
aF9.624835819704458
aF10.838681439781794
aF11.2152309891826
aF10.981889570975909
aF11.49247687208117
aF9.499531443143496
aF12.353926132345805
aF14.16163396454067
aF4.337382371450076
aF10.865107531571994
aF6.93348234417499
aF12.273556458676467
aF12.97602584483684
aF12.251282053912291
aF12.767258257517824
aF11.608227024698863
aF10.355622730130563
aF11.702451276505599
aF11.4698599082476
aF10.596087592566619
aF11.764193585986504
aF10.757385025644908
aF8.8506004762894
aF11.9880009618646
aF12.242745998228202
aF11.906548309052596
aF13.066491614008555
aF7.488473857665667
aF10.275315399194369
aF13.191483001137385
aF12.06543959575356
aF11.819296087051043
aF10.545743684197078
aF10.838072000915417
aF11.030205536080757
aF11.286083104932914
aF13.184815094718942
aF11.384287102991948
aF12.347426990891108
aF11.21385374935926
aF7.936325008049607
aF12.137006799603114
aF9.609422589564929
aF10.243320780718932
aF13.301969181775348
aF13.033287002617726
aF12.767632509494433
aF9.966682027006755
aF10.75085790726007
aF12.902809790248284
aF12.558550777757773
aF12.636779257009039
aF8.443921561265597
aF12.273970822716365
aF11.430458928371081
aF10.95482254298986
aF7.736983652139315
aF13.260988703841576
aF10.400141737336526
aF11.765127795661101
a.