(lp0
F0.18323083221912384
aF0.07457505166530609
aF0.08331672847270966
aF0.2828625366091728
aF0.0702570229768753
aF-0.02311575412750244
aF0.11169421672821045
aF0.08914012461900711
aF0.03826765716075897
aF0.10881664603948593
aF0.24550177156925201
aF0.09340893477201462
aF0.04644785821437836
aF0.21936824545264244
aF0.05920793116092682
aF0.13040606677532196
aF0.07685653865337372
aF0.14776482433080673
aF0.1715610884130001
aF0.22018502838909626
aF0.15232936665415764
aF0.18570683896541595
aF0.07231591641902924
aF0.04305623471736908
aF0.11725574731826782
aF0.05647018551826477
aF0.17785300686955452
aF0.12225823104381561
aF0.09641334414482117
aF0.20853778161108494
aF0.3918083906173706
aF-0.05229690670967102
aF0.14841250330209732
aF-0.014890089631080627
aF0.17817470990121365
aF0.014534294605255127
aF0.009161487221717834
aF0.0338129997253418
aF0.057236120104789734
aF0.05799591541290283
aF0.122368223965168
aF0.15006683766841888
aF0.14418040961027145
aF0.3957382142543793
aF0.0744057148694992
aF0.18995531369000673
aF0.3271714299917221
aF0.2423342540860176
aF0.3769216984510422
aF0.15124177187681198
aF0.5319547951221466
aF0.24743670970201492
aF0.3311349153518677
aF0.14373768121004105
aF0.2151926662772894
aF0.1867156671360135
aF0.14075041562318802
aF0.2385784164071083
aF0.09261466562747955
aF0.11090482771396637
aF0.1465710587799549
aF0.23963099345564842
aF0.1665271781384945
aF0.40197184681892395
aF0.10391359776258469
aF0.25651031732559204
aF0.41115260124206543
aF0.20168668904807419
aF0.23866680264472961
aF0.1434526927769184
aF0.15125950425863266
aF0.31360742449760437
aF0.13498765975236893
aF0.02320311963558197
aF0.2871907874941826
aF0.11346365511417389
aF0.021444469690322876
aF0.09230531752109528
aF0.05819949507713318
aF0.2623557224869728
aF0.21406743954867125
aF0.23742016032338142
aF0.36630064249038696
aF0.20173243654426187
aF0.2117771152406931
aF0.7571545541286469
aF0.6051248013973236
aF0.5418423414230347
aF0.32042643427848816
aF0.4587259888648987
aF0.2753073498606682
aF0.3422056585550308
aF0.2832456976175308
aF0.35164809226989746
aF0.41172176599502563
aF0.4099065065383911
aF0.27383052557706833
aF0.0663686990737915
aF0.2478402741253376
aF0.22279080003499985
aF0.18089159205555916
aF0.24204469472169876
aF0.6922885477542877
aF0.47720277309417725
aF0.1144726574420929
aF0.30950672924518585
aF0.24187260121107101
aF0.5111847817897797
aF0.46140262484550476
aF0.43699362874031067
aF0.24541151151061058
aF0.3697011172771454
aF0.30656372010707855
aF0.3645934909582138
aF0.3802231401205063
aF0.6358304023742676
aF0.4104825556278229
aF0.159366425126791
aF0.5461382567882538
aF0.4786836504936218
aF0.5564687699079514
aF0.6905883252620697
aF0.9519677460193634
aF0.4804133474826813
aF0.5399328768253326
aF0.28046537935733795
aF0.5126760005950928
aF0.6708060204982758
aF0.6835462749004364
aF0.6377783417701721
aF0.3514275401830673
aF0.8229184448719025
aF0.7467518746852875
aF0.6964965760707855
aF0.5011607110500336
aF1.0259977281093597
aF0.3177471309900284
aF0.47525355219841003
aF0.4979032874107361
aF0.6513774394989014
aF0.3542764186859131
aF0.7837302982807159
aF0.3760509639978409
aF0.9214600026607513
aF0.29971232265233994
aF0.5788237452507019
aF0.9653248488903046
aF0.6395692527294159
aF0.5688618719577789
aF0.748708039522171
aF0.6953140199184418
aF0.8157672584056854
aF0.40188366174697876
aF1.0232048332691193
aF0.6840196251869202
aF1.1985421478748322
aF0.6792641282081604
aF0.4050615429878235
aF0.039573684334754944
aF0.5897675156593323
aF0.7084815949201584
aF0.6810851991176605
aF0.7105984389781952
aF0.4449978619813919
aF1.122709482908249
aF0.8572143614292145
aF0.6363561153411865
aF0.614246129989624
aF0.8268814384937286
aF0.9211556017398834
aF0.8731514513492584
aF1.1181865632534027
aF1.01727095246315
aF1.079477697610855
aF0.559202253818512
aF0.4446362257003784
aF1.297521024942398
aF1.5292672216892242
aF0.5739632844924927
aF1.2889013588428497
aF1.0155689418315887
aF1.1102273762226105
aF0.8661239445209503
aF1.3340875208377838
aF0.80913046002388
aF0.687331885099411
aF0.882148951292038
aF1.0851263105869293
aF1.4730245172977448
aF0.47029733657836914
aF1.0659551918506622
aF1.2033725082874298
aF1.0054390132427216
aF0.74720898270607
aF1.1483031213283539
aF0.4747668504714966
aF1.1771049797534943
aF0.5993082225322723
aF1.3408751785755157
aF0.7230563461780548
aF1.3720313161611557
aF1.3759959042072296
aF1.1826992332935333
aF1.105625718832016
aF1.2676736414432526
aF0.9455786645412445
aF0.9730025827884674
aF1.014035314321518
aF1.3062022030353546
aF1.1657176315784454
aF0.8246431648731232
aF0.9945758283138275
aF1.2049615681171417
aF1.4262280762195587
aF1.2380934059619904
aF1.6792179644107819
aF1.4395551979541779
aF1.2262417376041412
aF0.6948157846927643
aF1.6325397789478302
aF1.5407749712467194
aF1.0984187424182892
aF0.636160284280777
aF1.3150551617145538
aF0.7876665890216827
aF1.3057095110416412
aF1.434274584054947
aF1.0135892927646637
aF0.764902800321579
aF1.4039744436740875
aF0.8946760594844818
aF0.8413918316364288
aF0.9240724742412567
aF1.0986442863941193
aF0.9783589541912079
aF1.1202078759670258
aF1.3035953342914581
aF0.5712672472000122
aF1.7219235002994537
aF1.1101690232753754
aF0.843953475356102
aF1.5444327890872955
aF1.344539076089859
aF1.6715597212314606
aF1.6417358219623566
aF1.126801759004593
aF1.3165806829929352
aF1.9343152344226837
aF1.1021464169025421
aF1.7687682211399078
aF1.6189056932926178
aF0.541947990655899
aF1.614833503961563
aF1.3021236956119537
aF1.6687356531620026
aF1.7347261011600494
aF1.4189102947711945
aF0.9149236381053925
aF1.1948454678058624
aF1.4190920889377594
aF1.801370769739151
aF1.20857635140419
aF0.5331076681613922
aF1.4116190969944
aF1.3185713589191437
aF1.700465351343155
aF1.033870905637741
aF1.499447375535965
aF1.6634844839572906
aF1.6089687645435333
aF1.6962161362171173
aF1.0525870621204376
aF1.6688325703144073
aF1.4600715935230255
aF1.2508168518543243
aF1.3850987255573273
aF1.8392085134983063
aF0.30563388764858246
aF0.823105663061142
aF1.6383234560489655
aF0.9529353827238083
aF2.1145327389240265
aF1.5870305597782135
aF1.0414599478244781
aF1.7861255705356598
aF1.360190063714981
aF1.089715987443924
aF2.143295556306839
aF0.4901484251022339
aF1.9938999712467194
aF2.010672241449356
aF1.010488897562027
aF1.6760403215885162
aF1.962533861398697
aF1.0425712764263153
aF1.7480296194553375
aF2.1152253448963165
aF1.7470856010913849
aF2.0990990698337555
aF1.8248763382434845
aF1.3121104538440704
aF1.74889674782753
aF1.9809594452381134
aF1.577606588602066
aF0.9964244663715363
aF1.7937200367450714
aF1.1227061450481415
aF1.3849590122699738
aF1.5325144827365875
aF1.2884508669376373
aF1.6482881605625153
aF1.887509971857071
aF1.856538325548172
aF0.9279859960079193
aF1.626150518655777
aF1.3718104660511017
aF1.7614099085330963
aF1.8715651333332062
aF1.8476252853870392
aF1.748274952173233
aF1.259987697005272
aF1.9128136932849884
aF1.8149140179157257
aF2.16010120511055
aF1.8822055160999298
aF0.8643917143344879
aF1.278098613023758
aF1.3865822851657867
aF1.0869753062725067
aF1.7540132105350494
aF2.333400636911392
aF1.143597811460495
aF1.4874419271945953
aF1.8591704666614532
aF1.7317403852939606
aF1.6182610094547272
aF1.9910928308963776
aF1.6258436739444733
aF2.0133208334445953
aF2.2503255903720856
aF2.251168876886368
aF1.7105865776538849
aF2.051793724298477
aF1.7535013258457184
aF1.7778247892856598
aF1.2808376848697662
aF1.5064757168293
aF2.0627234280109406
aF1.8397728502750397
aF2.131186991930008
aF1.6810099184513092
aF1.822803407907486
aF2.101635128259659
aF1.9057860672473907
aF2.266932874917984
aF2.270980268716812
aF1.8960688412189484
aF2.3579279482364655
aF1.4904018938541412
aF1.5030852854251862
aF1.0168983787298203
aF2.238257795572281
aF2.3711403906345367
aF1.9010311663150787
aF1.6990328133106232
aF2.048058182001114
aF2.1299205124378204
aF1.2585921585559845
aF1.7336703836917877
aF2.108039766550064
aF1.9837601482868195
aF2.131715327501297
aF1.9537018835544586
aF1.6340064108371735
aF2.120247036218643
aF2.514489561319351
aF1.909452348947525
aF1.6660615503787994
aF2.394207149744034
aF2.205593019723892
aF2.025658756494522
aF2.276700884103775
aF2.4900554716587067
aF2.0024963915348053
aF2.280065208673477
aF2.1213870346546173
aF1.4023341238498688
aF1.8978690207004547
aF2.2276512682437897
aF1.5564652979373932
aF1.2108561098575592
aF1.0193367302417755
aF2.0486541092395782
aF2.3286782801151276
aF2.0303349792957306
aF2.0949489176273346
aF2.183651238679886
aF2.1774504482746124
aF2.0683049261569977
aF1.8674032986164093
aF0.9254397600889206
aF2.4987708628177643
aF2.247988849878311
aF1.6315173208713531
aF2.063185602426529
aF2.3302158415317535
aF2.5197252333164215
aF2.4254943430423737
aF1.649614006280899
aF2.6560377180576324
aF2.253439575433731
aF2.058081179857254
aF1.4709968864917755
aF2.4714716970920563
aF1.2615262567996979
aF2.255991369485855
aF2.1192536652088165
aF2.450315624475479
aF1.7631490528583527
aF2.455695301294327
aF1.990137368440628
aF2.7312609255313873
aF2.252309948205948
aF2.424572378396988
aF2.7028681337833405
aF2.1431916058063507
aF2.4519318640232086
aF2.2227381765842438
aF2.1198863089084625
aF1.4874569475650787
aF2.391576200723648
aF2.5743090212345123
aF2.2785216867923737
aF2.2025627195835114
aF1.518699198961258
aF2.117294579744339
aF2.1231509745121
aF1.9977099001407623
aF1.5439161360263824
aF2.346079260110855
aF1.9358285516500473
aF2.2455715239048004
aF2.349806934595108
aF2.3314580023288727
aF2.3445304930210114
aF2.715835005044937
aF2.553307205438614
aF2.844386488199234
aF1.3272067606449127
aF2.4013501703739166
aF2.2090114653110504
aF2.5533701479434967
aF2.677084356546402
aF2.482652097940445
aF2.5730578005313873
aF2.4052046835422516
aF2.133202224969864
aF2.462202697992325
aF2.4126042425632477
aF2.18206587433815
aF2.404754549264908
aF2.357457309961319
aF1.9824019968509674
aF2.482663780450821
aF2.5174881517887115
aF2.4028333723545074
aF2.704143911600113
aF1.753715068101883
aF2.1464687883853912
aF2.8160089552402496
aF2.456250101327896
aF2.565267950296402
aF2.2527576982975006
aF2.1839188635349274
aF2.213365226984024
aF2.37032213807106
aF2.660721927881241
aF2.2983225882053375
aF2.544347196817398
aF2.2805515825748444
aF1.7233195155858994
aF2.5913545191287994
aF2.256967931985855
aF2.0948202908039093
aF2.6607252657413483
aF2.6455210745334625
aF2.68544140458107
aF2.0723643600940704
aF2.215593010187149
aF2.6223560869693756
aF2.5462209284305573
aF2.549779087305069
aF1.8617282211780548
aF2.619892507791519
aF2.548628956079483
aF2.2224489748477936
aF2.5898665487766266
aF2.709358364343643
aF2.1386275589466095
aF2.4149746000766754
a.