(lp0
F-0.2863650607105228
aF-0.7804707653122023
aF-1.150974205811508
aF-0.7457389897899702
aF1.0084448073757812
aF-0.21422593214083463
aF-0.7722212217049673
aF-0.6951065576868132
aF0.6226374086691067
aF-1.2088763184146956
aF-0.2511128253536299
aF-0.5800630833255127
aF-0.9234784013824537
aF0.06101103208493441
aF-0.3546190290944651
aF-1.0335801757173613
aF-0.5639485112624243
aF-1.035535506089218
aF-0.5417958233738318
aF-1.039575285394676
aF2.1023665530447033
aF1.3223171711433679
aF0.860349737922661
aF0.9500148583902046
aF1.593954383279197
aF1.4294791937572882
aF0.6966412969632074
aF1.3103697419865057
aF1.1372474365634844
aF1.070167639409192
aF2.0665837241176632
aF2.940427341382019
aF1.7843522847397253
aF2.3480181460035965
aF1.825425621937029
aF1.7014038347406313
aF2.504706156323664
aF2.3471109912497923
aF2.5890436180634424
aF1.9619659864110872
aF2.6168584240440396
aF3.1352056906325743
aF3.8518118363572285
aF2.225217425148003
aF3.6838044942123815
aF2.739552312414162
aF2.849937115679495
aF3.733740818570368
aF3.22764175652992
aF3.908140228013508
aF3.489460272139695
aF3.8953058019978926
aF3.0605502211255953
aF3.2497505814535543
aF3.4310071886284277
aF3.1870677665574476
aF3.215649888734333
aF3.983224366675131
aF4.16893923364114
aF4.04271840758156
aF2.711767458713439
aF3.2996029005153105
aF3.3455117576522753
aF3.3899043285055086
aF2.5999662809772417
aF3.9390956767601892
aF3.938495905022137
aF3.2063029118580744
aF3.248151929001324
aF3.7090021156473085
aF3.9542454643014935
aF3.9700454816920683
aF3.918581797624938
aF3.842175562749617
aF3.3978207752807066
aF3.659621120314114
aF4.26629030785989
aF3.1696979113621637
aF3.354753290186636
aF3.340884313802235
aF3.0779772320602206
aF4.075125201488845
aF2.6443612918956205
aF3.2465694443089887
aF4.480805822531693
aF3.392187037388794
aF2.561516721616499
aF3.57171022973489
aF4.032640398363583
aF4.0996634744806215
aF3.4294734312061337
aF2.915714380214922
aF2.9060265206499025
aF2.8097285487456247
aF3.125903715263121
aF2.887648005853407
aF3.075525161693804
aF3.902470783214085
aF3.4545097750378773
aF3.329852015594952
a.