(lp0
F-0.15807899262654246
aF-0.23899060048279352
aF0.2972196524206083
aF-0.06064331464585848
aF-0.037744756118627265
aF-0.17076576434192248
aF0.7186541256669443
aF0.2093864015478175
aF0.3521830371755641
aF0.4153907641011756
aF0.17859327757832943
aF1.3282808769690746
aF2.2783025136413926
aF2.1499590986604744
aF4.603746192642575
aF0.9835192972059303
aF6.6187325158352905
aF3.583760526144033
aF5.360358696543699
aF8.429409381114965
aF4.348143007719045
aF14.303064629548317
aF10.733942467832094
aF4.716874402129179
aF15.375416096412664
aF11.273588951789861
aF9.369216080867773
aF11.838524904214864
aF9.984874021374708
aF15.668052550518041
aF16.26093181233955
aF14.315265383684164
aF20.489063676559454
aF17.111632902287965
aF19.37723672401262
aF20.578956868612295
aF16.95347313221646
aF17.28410333778811
aF16.48597043391419
aF19.87331476446343
aF17.551724691056734
aF19.343749363088136
aF19.976903986298566
aF19.318606373035436
aF18.40576587628675
aF20.255916997903114
aF15.590425100290304
aF18.460197564327245
aF17.17526805039597
aF17.395875271522527
aF19.715430479609495
aF18.467875536643987
aF21.18936227328959
aF14.371425860299496
aF18.697788470162777
aF22.266909674945055
aF19.20172458208981
aF19.759177469386486
aF20.957910769357113
aF19.326835253013996
a.