(lp0
F-0.013893255265429616
aF-0.04216779503622092
aF0.06433846321306191
aF0.06232042130432092
aF0.03986045237979852
aF0.10297239836654626
aF0.15721189495525323
aF0.080441835190868
aF0.0890703451295849
aF0.09426030036411248
aF0.043326616985723376
aF0.27275808597914875
aF0.45786919142119586
aF0.45103551889769733
aF0.9291294410359114
aF0.33162741805426776
aF1.3748266294132918
aF0.9850020601879805
aF1.1396132304798812
aF1.8204708888661116
aF1.0961114957462996
aF2.868041355861351
aF2.245712597621605
aF1.0518564775120467
aF3.416585285915062
aF3.0541289641987532
aF2.1512053802143782
aF2.7924836471211165
aF2.186696369899437
aF3.272223789943382
aF3.307982762111351
aF3.126665909541771
aF4.144850571407005
aF3.4564307525288314
aF3.900101979030296
aF4.140951950801536
aF3.463406880153343
aF3.5486577346455306
aF3.6694856479298323
aF4.11958344723098
aF3.5445702865254134
aF3.907421429408714
aF4.12149937893264
aF3.9825843169819564
aF3.728043635142967
aF4.081570942653343
aF3.546827872050926
aF4.049341042293236
aF3.4893105819355696
aF4.082840760005638
aF4.062753994716331
aF4.2145770385395736
aF4.27705519911251
aF3.3534831356664654
aF4.253211433853721
aF4.458320076431846
aF4.589911873306846
aF4.319814140762901
aF4.460591728653526
aF3.910312588181114
a.