(lp0
F0.017722543259878876
aF0.005725127179175615
aF0.0048945327289402485
aF0.07454388635233045
aF0.0475042057223618
aF0.13712555123493075
aF0.0135758719407022
aF0.0385645548813045
aF0.018728539813309908
aF0.011182147543877363
aF0.007607961470057489
aF0.007195616675744532
aF0.0023023947833280545
aF0.021137405256013153
aF0.008473908597807167
aF0.1349235586130817
aF0.05117383233664441
aF0.2682499549591739
aF0.06754149117114139
aF0.13458901264311862
aF0.22648289420249057
aF0.007522136042098282
aF0.09901781014559674
aF0.10857530317662167
aF0.341502066632529
aF0.799411173840781
aF0.2774558701312344
aF0.42477866627814365
aF0.18981527171490598
aF0.1387069859301846
aF0.05589010573385167
aF0.2637065388953488
aF0.04703783609511447
aF0.03410417207123828
aF0.024654634227772476
aF0.02525428316948819
aF0.072805959800462
aF0.09183706708790851
aF0.37238526723740506
aF0.1450142004287045
aF0.034319054404477356
aF0.038671556791086914
aF0.12621228776333737
aF0.11886304237486911
aF0.046984165976027725
aF0.03038754307272029
aF0.42883655808327603
aF0.3573952355181973
aF0.05435067794678616
aF0.6037594117915432
aF0.1196678987944324
aF0.5210956373011868
aF0.0392775465734303
aF0.479292765725404
aF0.5137485419400036
aF0.005032943561673164
aF0.7496617590077221
aF0.36797864688560367
aF0.26910437690094113
aF0.045040339697152376
a.